
a:     file format elf64-x86-64


Disassembly of section .init:

0000000000453000 <_init>:
  453000:	f3 0f 1e fa          	endbr64 
  453004:	48 83 ec 08          	sub    $0x8,%rsp
  453008:	48 8b 05 d9 4f 03 00 	mov    0x34fd9(%rip),%rax        # 487fe8 <__gmon_start__>
  45300f:	48 85 c0             	test   %rax,%rax
  453012:	74 02                	je     453016 <_init+0x16>
  453014:	ff d0                	callq  *%rax
  453016:	48 83 c4 08          	add    $0x8,%rsp
  45301a:	c3                   	retq   

Disassembly of section .plt:

0000000000453020 <.plt>:
  453020:	ff 35 e2 4f 03 00    	pushq  0x34fe2(%rip)        # 488008 <_GLOBAL_OFFSET_TABLE_+0x8>
  453026:	ff 25 e4 4f 03 00    	jmpq   *0x34fe4(%rip)        # 488010 <_GLOBAL_OFFSET_TABLE_+0x10>
  45302c:	0f 1f 40 00          	nopl   0x0(%rax)

0000000000453030 <_ZNKSt7__cxx1112basic_stringIcSt11char_traitsIcESaIcEE7compareERKS4_@plt>:
  453030:	ff 25 e2 4f 03 00    	jmpq   *0x34fe2(%rip)        # 488018 <_ZNKSt7__cxx1112basic_stringIcSt11char_traitsIcESaIcEE7compareERKS4_@GLIBCXX_3.4.21>
  453036:	68 00 00 00 00       	pushq  $0x0
  45303b:	e9 e0 ff ff ff       	jmpq   453020 <.plt>

0000000000453040 <__errno_location@plt>:
  453040:	ff 25 da 4f 03 00    	jmpq   *0x34fda(%rip)        # 488020 <__errno_location@GLIBC_2.2.5>
  453046:	68 01 00 00 00       	pushq  $0x1
  45304b:	e9 d0 ff ff ff       	jmpq   453020 <.plt>

0000000000453050 <_ZNSt6chrono3_V212system_clock3nowEv@plt>:
  453050:	ff 25 d2 4f 03 00    	jmpq   *0x34fd2(%rip)        # 488028 <_ZNSt6chrono3_V212system_clock3nowEv@GLIBCXX_3.4.19>
  453056:	68 02 00 00 00       	pushq  $0x2
  45305b:	e9 c0 ff ff ff       	jmpq   453020 <.plt>

0000000000453060 <_ZNSt8__detail15_List_node_base7_M_hookEPS0_@plt>:
  453060:	ff 25 ca 4f 03 00    	jmpq   *0x34fca(%rip)        # 488030 <_ZNSt8__detail15_List_node_base7_M_hookEPS0_@GLIBCXX_3.4.15>
  453066:	68 03 00 00 00       	pushq  $0x3
  45306b:	e9 b0 ff ff ff       	jmpq   453020 <.plt>

0000000000453070 <_ZSt29_Rb_tree_insert_and_rebalancebPSt18_Rb_tree_node_baseS0_RS_@plt>:
  453070:	ff 25 c2 4f 03 00    	jmpq   *0x34fc2(%rip)        # 488038 <_ZSt29_Rb_tree_insert_and_rebalancebPSt18_Rb_tree_node_baseS0_RS_@GLIBCXX_3.4>
  453076:	68 04 00 00 00       	pushq  $0x4
  45307b:	e9 a0 ff ff ff       	jmpq   453020 <.plt>

0000000000453080 <_ZNSaIcED2Ev@plt>:
  453080:	ff 25 ba 4f 03 00    	jmpq   *0x34fba(%rip)        # 488040 <_ZNSaIcED2Ev@GLIBCXX_3.4>
  453086:	68 05 00 00 00       	pushq  $0x5
  45308b:	e9 90 ff ff ff       	jmpq   453020 <.plt>

0000000000453090 <_ZSt20__throw_future_errori@plt>:
  453090:	ff 25 b2 4f 03 00    	jmpq   *0x34fb2(%rip)        # 488048 <_ZSt20__throw_future_errori@GLIBCXX_3.4.14>
  453096:	68 06 00 00 00       	pushq  $0x6
  45309b:	e9 80 ff ff ff       	jmpq   453020 <.plt>

00000000004530a0 <_ZNSolsEm@plt>:
  4530a0:	ff 25 aa 4f 03 00    	jmpq   *0x34faa(%rip)        # 488050 <_ZNSolsEm@GLIBCXX_3.4>
  4530a6:	68 07 00 00 00       	pushq  $0x7
  4530ab:	e9 70 ff ff ff       	jmpq   453020 <.plt>

00000000004530b0 <_ZNSt7__cxx1112basic_stringIcSt11char_traitsIcESaIcEE6insertEmPKc@plt>:
  4530b0:	ff 25 a2 4f 03 00    	jmpq   *0x34fa2(%rip)        # 488058 <_ZNSt7__cxx1112basic_stringIcSt11char_traitsIcESaIcEE6insertEmPKc@GLIBCXX_3.4.21>
  4530b6:	68 08 00 00 00       	pushq  $0x8
  4530bb:	e9 60 ff ff ff       	jmpq   453020 <.plt>

00000000004530c0 <_ZSt9terminatev@plt>:
  4530c0:	ff 25 9a 4f 03 00    	jmpq   *0x34f9a(%rip)        # 488060 <_ZSt9terminatev@GLIBCXX_3.4>
  4530c6:	68 09 00 00 00       	pushq  $0x9
  4530cb:	e9 50 ff ff ff       	jmpq   453020 <.plt>

00000000004530d0 <nanosleep@plt>:
  4530d0:	ff 25 92 4f 03 00    	jmpq   *0x34f92(%rip)        # 488068 <nanosleep@GLIBC_2.2.5>
  4530d6:	68 0a 00 00 00       	pushq  $0xa
  4530db:	e9 40 ff ff ff       	jmpq   453020 <.plt>

00000000004530e0 <_ZNSt15__exception_ptr13exception_ptr4swapERS0_@plt>:
  4530e0:	ff 25 8a 4f 03 00    	jmpq   *0x34f8a(%rip)        # 488070 <_ZNSt15__exception_ptr13exception_ptr4swapERS0_@CXXABI_1.3.3>
  4530e6:	68 0b 00 00 00       	pushq  $0xb
  4530eb:	e9 30 ff ff ff       	jmpq   453020 <.plt>

00000000004530f0 <_ZNSt15__exception_ptr13exception_ptrC1ERKS0_@plt>:
  4530f0:	ff 25 82 4f 03 00    	jmpq   *0x34f82(%rip)        # 488078 <_ZNSt15__exception_ptr13exception_ptrC1ERKS0_@CXXABI_1.3.3>
  4530f6:	68 0c 00 00 00       	pushq  $0xc
  4530fb:	e9 20 ff ff ff       	jmpq   453020 <.plt>

0000000000453100 <_ZSt17__throw_bad_allocv@plt>:
  453100:	ff 25 7a 4f 03 00    	jmpq   *0x34f7a(%rip)        # 488080 <_ZSt17__throw_bad_allocv@GLIBCXX_3.4>
  453106:	68 0d 00 00 00       	pushq  $0xd
  45310b:	e9 10 ff ff ff       	jmpq   453020 <.plt>

0000000000453110 <_ZSt25__throw_bad_function_callv@plt>:
  453110:	ff 25 72 4f 03 00    	jmpq   *0x34f72(%rip)        # 488088 <_ZSt25__throw_bad_function_callv@GLIBCXX_3.4.14>
  453116:	68 0e 00 00 00       	pushq  $0xe
  45311b:	e9 00 ff ff ff       	jmpq   453020 <.plt>

0000000000453120 <__cxa_begin_catch@plt>:
  453120:	ff 25 6a 4f 03 00    	jmpq   *0x34f6a(%rip)        # 488090 <__cxa_begin_catch@CXXABI_1.3>
  453126:	68 0f 00 00 00       	pushq  $0xf
  45312b:	e9 f0 fe ff ff       	jmpq   453020 <.plt>

0000000000453130 <_ZNSt8ios_base15sync_with_stdioEb@plt>:
  453130:	ff 25 62 4f 03 00    	jmpq   *0x34f62(%rip)        # 488098 <_ZNSt8ios_base15sync_with_stdioEb@GLIBCXX_3.4>
  453136:	68 10 00 00 00       	pushq  $0x10
  45313b:	e9 e0 fe ff ff       	jmpq   453020 <.plt>

0000000000453140 <_ZNSt7__cxx1112basic_stringIcSt11char_traitsIcESaIcEEC1ERKS4_@plt>:
  453140:	ff 25 5a 4f 03 00    	jmpq   *0x34f5a(%rip)        # 4880a0 <_ZNSt7__cxx1112basic_stringIcSt11char_traitsIcESaIcEEC1ERKS4_@GLIBCXX_3.4.21>
  453146:	68 11 00 00 00       	pushq  $0x11
  45314b:	e9 d0 fe ff ff       	jmpq   453020 <.plt>

0000000000453150 <strlen@plt>:
  453150:	ff 25 52 4f 03 00    	jmpq   *0x34f52(%rip)        # 4880a8 <strlen@GLIBC_2.2.5>
  453156:	68 12 00 00 00       	pushq  $0x12
  45315b:	e9 c0 fe ff ff       	jmpq   453020 <.plt>

0000000000453160 <_ZNSt6thread6_StateD2Ev@plt>:
  453160:	ff 25 4a 4f 03 00    	jmpq   *0x34f4a(%rip)        # 4880b0 <_ZNSt6thread6_StateD2Ev@GLIBCXX_3.4.22>
  453166:	68 13 00 00 00       	pushq  $0x13
  45316b:	e9 b0 fe ff ff       	jmpq   453020 <.plt>

0000000000453170 <_ZSt4endlIcSt11char_traitsIcEERSt13basic_ostreamIT_T0_ES6_@plt>:
  453170:	ff 25 42 4f 03 00    	jmpq   *0x34f42(%rip)        # 4880b8 <_ZSt4endlIcSt11char_traitsIcEERSt13basic_ostreamIT_T0_ES6_@GLIBCXX_3.4>
  453176:	68 14 00 00 00       	pushq  $0x14
  45317b:	e9 a0 fe ff ff       	jmpq   453020 <.plt>

0000000000453180 <__cxa_allocate_exception@plt>:
  453180:	ff 25 3a 4f 03 00    	jmpq   *0x34f3a(%rip)        # 4880c0 <__cxa_allocate_exception@CXXABI_1.3>
  453186:	68 15 00 00 00       	pushq  $0x15
  45318b:	e9 90 fe ff ff       	jmpq   453020 <.plt>

0000000000453190 <_ZNSt18condition_variable10notify_oneEv@plt>:
  453190:	ff 25 32 4f 03 00    	jmpq   *0x34f32(%rip)        # 4880c8 <_ZNSt18condition_variable10notify_oneEv@GLIBCXX_3.4.11>
  453196:	68 16 00 00 00       	pushq  $0x16
  45319b:	e9 80 fe ff ff       	jmpq   453020 <.plt>

00000000004531a0 <_ZNSt3_V216generic_categoryEv@plt>:
  4531a0:	ff 25 2a 4f 03 00    	jmpq   *0x34f2a(%rip)        # 4880d0 <_ZNSt3_V216generic_categoryEv@GLIBCXX_3.4.21>
  4531a6:	68 17 00 00 00       	pushq  $0x17
  4531ab:	e9 70 fe ff ff       	jmpq   453020 <.plt>

00000000004531b0 <_ZNSt15__exception_ptreqERKNS_13exception_ptrES2_@plt>:
  4531b0:	ff 25 22 4f 03 00    	jmpq   *0x34f22(%rip)        # 4880d8 <_ZNSt15__exception_ptreqERKNS_13exception_ptrES2_@CXXABI_1.3.3>
  4531b6:	68 18 00 00 00       	pushq  $0x18
  4531bb:	e9 60 fe ff ff       	jmpq   453020 <.plt>

00000000004531c0 <_ZSt20__throw_length_errorPKc@plt>:
  4531c0:	ff 25 1a 4f 03 00    	jmpq   *0x34f1a(%rip)        # 4880e0 <_ZSt20__throw_length_errorPKc@GLIBCXX_3.4>
  4531c6:	68 19 00 00 00       	pushq  $0x19
  4531cb:	e9 50 fe ff ff       	jmpq   453020 <.plt>

00000000004531d0 <memset@plt>:
  4531d0:	ff 25 12 4f 03 00    	jmpq   *0x34f12(%rip)        # 4880e8 <memset@GLIBC_2.2.5>
  4531d6:	68 1a 00 00 00       	pushq  $0x1a
  4531db:	e9 40 fe ff ff       	jmpq   453020 <.plt>

00000000004531e0 <_ZSt15future_categoryv@plt>:
  4531e0:	ff 25 0a 4f 03 00    	jmpq   *0x34f0a(%rip)        # 4880f0 <_ZSt15future_categoryv@GLIBCXX_3.4.15>
  4531e6:	68 1b 00 00 00       	pushq  $0x1b
  4531eb:	e9 30 fe ff ff       	jmpq   453020 <.plt>

00000000004531f0 <pthread_create@plt>:
  4531f0:	ff 25 02 4f 03 00    	jmpq   *0x34f02(%rip)        # 4880f8 <pthread_create@GLIBC_2.2.5>
  4531f6:	68 1c 00 00 00       	pushq  $0x1c
  4531fb:	e9 20 fe ff ff       	jmpq   453020 <.plt>

0000000000453200 <_ZNSt7__cxx1112basic_stringIcSt11char_traitsIcESaIcEEC1EOS4_@plt>:
  453200:	ff 25 fa 4e 03 00    	jmpq   *0x34efa(%rip)        # 488100 <_ZNSt7__cxx1112basic_stringIcSt11char_traitsIcESaIcEEC1EOS4_@GLIBCXX_3.4.21>
  453206:	68 1d 00 00 00       	pushq  $0x1d
  45320b:	e9 10 fe ff ff       	jmpq   453020 <.plt>

0000000000453210 <_ZNSt13__future_base12_Result_baseC2Ev@plt>:
  453210:	ff 25 f2 4e 03 00    	jmpq   *0x34ef2(%rip)        # 488108 <_ZNSt13__future_base12_Result_baseC2Ev@GLIBCXX_3.4.15>
  453216:	68 1e 00 00 00       	pushq  $0x1e
  45321b:	e9 00 fe ff ff       	jmpq   453020 <.plt>

0000000000453220 <_ZNSt7__cxx1112basic_stringIcSt11char_traitsIcESaIcEED1Ev@plt>:
  453220:	ff 25 ea 4e 03 00    	jmpq   *0x34eea(%rip)        # 488110 <_ZNSt7__cxx1112basic_stringIcSt11char_traitsIcESaIcEED1Ev@GLIBCXX_3.4.21>
  453226:	68 1f 00 00 00       	pushq  $0x1f
  45322b:	e9 f0 fd ff ff       	jmpq   453020 <.plt>

0000000000453230 <_ZSt20__throw_system_errori@plt>:
  453230:	ff 25 e2 4e 03 00    	jmpq   *0x34ee2(%rip)        # 488118 <_ZSt20__throw_system_errori@GLIBCXX_3.4.11>
  453236:	68 20 00 00 00       	pushq  $0x20
  45323b:	e9 e0 fd ff ff       	jmpq   453020 <.plt>

0000000000453240 <_ZNSt7__cxx1112basic_stringIcSt11char_traitsIcESaIcEE13_M_set_lengthEm@plt>:
  453240:	ff 25 da 4e 03 00    	jmpq   *0x34eda(%rip)        # 488120 <_ZNSt7__cxx1112basic_stringIcSt11char_traitsIcESaIcEE13_M_set_lengthEm@GLIBCXX_3.4.21>
  453246:	68 21 00 00 00       	pushq  $0x21
  45324b:	e9 d0 fd ff ff       	jmpq   453020 <.plt>

0000000000453250 <_ZSt19__throw_logic_errorPKc@plt>:
  453250:	ff 25 d2 4e 03 00    	jmpq   *0x34ed2(%rip)        # 488128 <_ZSt19__throw_logic_errorPKc@GLIBCXX_3.4>
  453256:	68 22 00 00 00       	pushq  $0x22
  45325b:	e9 c0 fd ff ff       	jmpq   453020 <.plt>

0000000000453260 <__cxa_free_exception@plt>:
  453260:	ff 25 ca 4e 03 00    	jmpq   *0x34eca(%rip)        # 488130 <__cxa_free_exception@CXXABI_1.3>
  453266:	68 23 00 00 00       	pushq  $0x23
  45326b:	e9 b0 fd ff ff       	jmpq   453020 <.plt>

0000000000453270 <_ZNSt13__future_base12_Result_baseD2Ev@plt>:
  453270:	ff 25 c2 4e 03 00    	jmpq   *0x34ec2(%rip)        # 488138 <_ZNSt13__future_base12_Result_baseD2Ev@GLIBCXX_3.4.15>
  453276:	68 24 00 00 00       	pushq  $0x24
  45327b:	e9 a0 fd ff ff       	jmpq   453020 <.plt>

0000000000453280 <sleep@plt>:
  453280:	ff 25 ba 4e 03 00    	jmpq   *0x34eba(%rip)        # 488140 <sleep@GLIBC_2.2.5>
  453286:	68 25 00 00 00       	pushq  $0x25
  45328b:	e9 90 fd ff ff       	jmpq   453020 <.plt>

0000000000453290 <pthread_mutex_unlock@plt>:
  453290:	ff 25 b2 4e 03 00    	jmpq   *0x34eb2(%rip)        # 488148 <pthread_mutex_unlock@GLIBC_2.2.5>
  453296:	68 26 00 00 00       	pushq  $0x26
  45329b:	e9 80 fd ff ff       	jmpq   453020 <.plt>

00000000004532a0 <pthread_rwlock_wrlock@plt>:
  4532a0:	ff 25 aa 4e 03 00    	jmpq   *0x34eaa(%rip)        # 488150 <pthread_rwlock_wrlock@GLIBC_2.2.5>
  4532a6:	68 27 00 00 00       	pushq  $0x27
  4532ab:	e9 70 fd ff ff       	jmpq   453020 <.plt>

00000000004532b0 <_ZNSolsEPKv@plt>:
  4532b0:	ff 25 a2 4e 03 00    	jmpq   *0x34ea2(%rip)        # 488158 <_ZNSolsEPKv@GLIBCXX_3.4>
  4532b6:	68 28 00 00 00       	pushq  $0x28
  4532bb:	e9 60 fd ff ff       	jmpq   453020 <.plt>

00000000004532c0 <_ZNSt7__cxx1112basic_stringIcSt11char_traitsIcESaIcEE13_M_local_dataEv@plt>:
  4532c0:	ff 25 9a 4e 03 00    	jmpq   *0x34e9a(%rip)        # 488160 <_ZNSt7__cxx1112basic_stringIcSt11char_traitsIcESaIcEE13_M_local_dataEv@GLIBCXX_3.4.21>
  4532c6:	68 29 00 00 00       	pushq  $0x29
  4532cb:	e9 50 fd ff ff       	jmpq   453020 <.plt>

00000000004532d0 <_ZNSt7__cxx1112basic_stringIcSt11char_traitsIcESaIcEE7_M_dataEPc@plt>:
  4532d0:	ff 25 92 4e 03 00    	jmpq   *0x34e92(%rip)        # 488168 <_ZNSt7__cxx1112basic_stringIcSt11char_traitsIcESaIcEE7_M_dataEPc@GLIBCXX_3.4.21>
  4532d6:	68 2a 00 00 00       	pushq  $0x2a
  4532db:	e9 40 fd ff ff       	jmpq   453020 <.plt>

00000000004532e0 <__cxa_atexit@plt>:
  4532e0:	ff 25 8a 4e 03 00    	jmpq   *0x34e8a(%rip)        # 488170 <__cxa_atexit@GLIBC_2.2.5>
  4532e6:	68 2b 00 00 00       	pushq  $0x2b
  4532eb:	e9 30 fd ff ff       	jmpq   453020 <.plt>

00000000004532f0 <_ZStlsIcSt11char_traitsIcESaIcEERSt13basic_ostreamIT_T0_ES7_RKNSt7__cxx1112basic_stringIS4_S5_T1_EE@plt>:
  4532f0:	ff 25 82 4e 03 00    	jmpq   *0x34e82(%rip)        # 488178 <_ZStlsIcSt11char_traitsIcESaIcEERSt13basic_ostreamIT_T0_ES7_RKNSt7__cxx1112basic_stringIS4_S5_T1_EE@GLIBCXX_3.4.21>
  4532f6:	68 2c 00 00 00       	pushq  $0x2c
  4532fb:	e9 20 fd ff ff       	jmpq   453020 <.plt>

0000000000453300 <pthread_self@plt>:
  453300:	ff 25 7a 4e 03 00    	jmpq   *0x34e7a(%rip)        # 488180 <pthread_self@GLIBC_2.2.5>
  453306:	68 2d 00 00 00       	pushq  $0x2d
  45330b:	e9 10 fd ff ff       	jmpq   453020 <.plt>

0000000000453310 <_ZNSt6thread15_M_start_threadESt10unique_ptrINS_6_StateESt14default_deleteIS1_EEPFvvE@plt>:
  453310:	ff 25 72 4e 03 00    	jmpq   *0x34e72(%rip)        # 488188 <_ZNSt6thread15_M_start_threadESt10unique_ptrINS_6_StateESt14default_deleteIS1_EEPFvvE@GLIBCXX_3.4.22>
  453316:	68 2e 00 00 00       	pushq  $0x2e
  45331b:	e9 00 fd ff ff       	jmpq   453020 <.plt>

0000000000453320 <__cxa_init_primary_exception@plt>:
  453320:	ff 25 6a 4e 03 00    	jmpq   *0x34e6a(%rip)        # 488190 <__cxa_init_primary_exception@CXXABI_1.3.11>
  453326:	68 2f 00 00 00       	pushq  $0x2f
  45332b:	e9 f0 fc ff ff       	jmpq   453020 <.plt>

0000000000453330 <_ZNSt28__atomic_futex_unsigned_base19_M_futex_notify_allEPj@plt>:
  453330:	ff 25 62 4e 03 00    	jmpq   *0x34e62(%rip)        # 488198 <_ZNSt28__atomic_futex_unsigned_base19_M_futex_notify_allEPj@GLIBCXX_3.4.21>
  453336:	68 30 00 00 00       	pushq  $0x30
  45333b:	e9 e0 fc ff ff       	jmpq   453020 <.plt>

0000000000453340 <_ZNSolsEy@plt>:
  453340:	ff 25 5a 4e 03 00    	jmpq   *0x34e5a(%rip)        # 4881a0 <_ZNSolsEy@GLIBCXX_3.4>
  453346:	68 31 00 00 00       	pushq  $0x31
  45334b:	e9 d0 fc ff ff       	jmpq   453020 <.plt>

0000000000453350 <_ZStlsISt11char_traitsIcEERSt13basic_ostreamIcT_ES5_PKc@plt>:
  453350:	ff 25 52 4e 03 00    	jmpq   *0x34e52(%rip)        # 4881a8 <_ZStlsISt11char_traitsIcEERSt13basic_ostreamIcT_ES5_PKc@GLIBCXX_3.4>
  453356:	68 32 00 00 00       	pushq  $0x32
  45335b:	e9 c0 fc ff ff       	jmpq   453020 <.plt>

0000000000453360 <_Znwm@plt>:
  453360:	ff 25 4a 4e 03 00    	jmpq   *0x34e4a(%rip)        # 4881b0 <_Znwm@GLIBCXX_3.4>
  453366:	68 33 00 00 00       	pushq  $0x33
  45336b:	e9 b0 fc ff ff       	jmpq   453020 <.plt>

0000000000453370 <_ZdlPvm@plt>:
  453370:	ff 25 42 4e 03 00    	jmpq   *0x34e42(%rip)        # 4881b8 <_ZdlPvm@CXXABI_1.3.9>
  453376:	68 34 00 00 00       	pushq  $0x34
  45337b:	e9 a0 fc ff ff       	jmpq   453020 <.plt>

0000000000453380 <_ZSt17rethrow_exceptionNSt15__exception_ptr13exception_ptrE@plt>:
  453380:	ff 25 3a 4e 03 00    	jmpq   *0x34e3a(%rip)        # 4881c0 <_ZSt17rethrow_exceptionNSt15__exception_ptr13exception_ptrE@CXXABI_1.3.3>
  453386:	68 35 00 00 00       	pushq  $0x35
  45338b:	e9 90 fc ff ff       	jmpq   453020 <.plt>

0000000000453390 <_ZSt18_Rb_tree_decrementPSt18_Rb_tree_node_base@plt>:
  453390:	ff 25 32 4e 03 00    	jmpq   *0x34e32(%rip)        # 4881c8 <_ZSt18_Rb_tree_decrementPSt18_Rb_tree_node_base@GLIBCXX_3.4>
  453396:	68 36 00 00 00       	pushq  $0x36
  45339b:	e9 80 fc ff ff       	jmpq   453020 <.plt>

00000000004533a0 <_ZNSolsEPFRSoS_E@plt>:
  4533a0:	ff 25 2a 4e 03 00    	jmpq   *0x34e2a(%rip)        # 4881d0 <_ZNSolsEPFRSoS_E@GLIBCXX_3.4>
  4533a6:	68 37 00 00 00       	pushq  $0x37
  4533ab:	e9 70 fc ff ff       	jmpq   453020 <.plt>

00000000004533b0 <_ZNSt7__cxx1112basic_stringIcSt11char_traitsIcESaIcEE12_Alloc_hiderC1EPcRKS3_@plt>:
  4533b0:	ff 25 22 4e 03 00    	jmpq   *0x34e22(%rip)        # 4881d8 <_ZNSt7__cxx1112basic_stringIcSt11char_traitsIcESaIcEE12_Alloc_hiderC1EPcRKS3_@GLIBCXX_3.4.21>
  4533b6:	68 38 00 00 00       	pushq  $0x38
  4533bb:	e9 60 fc ff ff       	jmpq   453020 <.plt>

00000000004533c0 <_ZNSaIcED1Ev@plt>:
  4533c0:	ff 25 1a 4e 03 00    	jmpq   *0x34e1a(%rip)        # 4881e0 <_ZNSaIcED1Ev@GLIBCXX_3.4>
  4533c6:	68 39 00 00 00       	pushq  $0x39
  4533cb:	e9 50 fc ff ff       	jmpq   453020 <.plt>

00000000004533d0 <_ZNKSt7__cxx1112basic_stringIcSt11char_traitsIcESaIcEE7_M_dataEv@plt>:
  4533d0:	ff 25 12 4e 03 00    	jmpq   *0x34e12(%rip)        # 4881e8 <_ZNKSt7__cxx1112basic_stringIcSt11char_traitsIcESaIcEE7_M_dataEv@GLIBCXX_3.4.21>
  4533d6:	68 3a 00 00 00       	pushq  $0x3a
  4533db:	e9 40 fc ff ff       	jmpq   453020 <.plt>

00000000004533e0 <_ZSt17current_exceptionv@plt>:
  4533e0:	ff 25 0a 4e 03 00    	jmpq   *0x34e0a(%rip)        # 4881f0 <_ZSt17current_exceptionv@CXXABI_1.3.3>
  4533e6:	68 3b 00 00 00       	pushq  $0x3b
  4533eb:	e9 30 fc ff ff       	jmpq   453020 <.plt>

00000000004533f0 <_ZNSt7__cxx1112basic_stringIcSt11char_traitsIcESaIcEE13_S_copy_charsEPcPKcS7_@plt>:
  4533f0:	ff 25 02 4e 03 00    	jmpq   *0x34e02(%rip)        # 4881f8 <_ZNSt7__cxx1112basic_stringIcSt11char_traitsIcESaIcEE13_S_copy_charsEPcPKcS7_@GLIBCXX_3.4.21>
  4533f6:	68 3c 00 00 00       	pushq  $0x3c
  4533fb:	e9 20 fc ff ff       	jmpq   453020 <.plt>

0000000000453400 <_ZNSt7__cxx1112basic_stringIcSt11char_traitsIcESaIcEE10_M_disposeEv@plt>:
  453400:	ff 25 fa 4d 03 00    	jmpq   *0x34dfa(%rip)        # 488200 <_ZNSt7__cxx1112basic_stringIcSt11char_traitsIcESaIcEE10_M_disposeEv@GLIBCXX_3.4.21>
  453406:	68 3d 00 00 00       	pushq  $0x3d
  45340b:	e9 10 fc ff ff       	jmpq   453020 <.plt>

0000000000453410 <_ZNSt11logic_errorD1Ev@plt>:
  453410:	ff 25 f2 4d 03 00    	jmpq   *0x34df2(%rip)        # 488208 <_ZNSt11logic_errorD1Ev@GLIBCXX_3.4>
  453416:	68 3e 00 00 00       	pushq  $0x3e
  45341b:	e9 00 fc ff ff       	jmpq   453020 <.plt>

0000000000453420 <_ZNSt15__exception_ptr13exception_ptrC1EPv@plt>:
  453420:	ff 25 ea 4d 03 00    	jmpq   *0x34dea(%rip)        # 488210 <_ZNSt15__exception_ptr13exception_ptrC1EPv@CXXABI_1.3.11>
  453426:	68 3f 00 00 00       	pushq  $0x3f
  45342b:	e9 f0 fb ff ff       	jmpq   453020 <.plt>

0000000000453430 <pthread_rwlock_rdlock@plt>:
  453430:	ff 25 e2 4d 03 00    	jmpq   *0x34de2(%rip)        # 488218 <pthread_rwlock_rdlock@GLIBC_2.2.5>
  453436:	68 40 00 00 00       	pushq  $0x40
  45343b:	e9 e0 fb ff ff       	jmpq   453020 <.plt>

0000000000453440 <_ZNSolsEj@plt>:
  453440:	ff 25 da 4d 03 00    	jmpq   *0x34dda(%rip)        # 488220 <_ZNSolsEj@GLIBCXX_3.4>
  453446:	68 41 00 00 00       	pushq  $0x41
  45344b:	e9 d0 fb ff ff       	jmpq   453020 <.plt>

0000000000453450 <strcmp@plt>:
  453450:	ff 25 d2 4d 03 00    	jmpq   *0x34dd2(%rip)        # 488228 <strcmp@GLIBC_2.2.5>
  453456:	68 42 00 00 00       	pushq  $0x42
  45345b:	e9 c0 fb ff ff       	jmpq   453020 <.plt>

0000000000453460 <_ZNSt18condition_variableC1Ev@plt>:
  453460:	ff 25 ca 4d 03 00    	jmpq   *0x34dca(%rip)        # 488230 <_ZNSt18condition_variableC1Ev@GLIBCXX_3.4.11>
  453466:	68 43 00 00 00       	pushq  $0x43
  45346b:	e9 b0 fb ff ff       	jmpq   453020 <.plt>

0000000000453470 <_ZNSt11logic_errorC1EPKc@plt>:
  453470:	ff 25 c2 4d 03 00    	jmpq   *0x34dc2(%rip)        # 488238 <_ZNSt11logic_errorC1EPKc@GLIBCXX_3.4.21>
  453476:	68 44 00 00 00       	pushq  $0x44
  45347b:	e9 a0 fb ff ff       	jmpq   453020 <.plt>

0000000000453480 <__cxa_rethrow@plt>:
  453480:	ff 25 ba 4d 03 00    	jmpq   *0x34dba(%rip)        # 488240 <__cxa_rethrow@CXXABI_1.3>
  453486:	68 45 00 00 00       	pushq  $0x45
  45348b:	e9 90 fb ff ff       	jmpq   453020 <.plt>

0000000000453490 <pthread_mutex_lock@plt>:
  453490:	ff 25 b2 4d 03 00    	jmpq   *0x34db2(%rip)        # 488248 <pthread_mutex_lock@GLIBC_2.2.5>
  453496:	68 46 00 00 00       	pushq  $0x46
  45349b:	e9 80 fb ff ff       	jmpq   453020 <.plt>

00000000004534a0 <_ZNSt8ios_base4InitC1Ev@plt>:
  4534a0:	ff 25 aa 4d 03 00    	jmpq   *0x34daa(%rip)        # 488250 <_ZNSt8ios_base4InitC1Ev@GLIBCXX_3.4>
  4534a6:	68 47 00 00 00       	pushq  $0x47
  4534ab:	e9 70 fb ff ff       	jmpq   453020 <.plt>

00000000004534b0 <_ZNSt18condition_variable4waitERSt11unique_lockISt5mutexE@plt>:
  4534b0:	ff 25 a2 4d 03 00    	jmpq   *0x34da2(%rip)        # 488258 <_ZNSt18condition_variable4waitERSt11unique_lockISt5mutexE@GLIBCXX_3.4.11>
  4534b6:	68 48 00 00 00       	pushq  $0x48
  4534bb:	e9 60 fb ff ff       	jmpq   453020 <.plt>

00000000004534c0 <__once_proxy@plt>:
  4534c0:	ff 25 9a 4d 03 00    	jmpq   *0x34d9a(%rip)        # 488260 <__once_proxy@GLIBCXX_3.4.11>
  4534c6:	68 49 00 00 00       	pushq  $0x49
  4534cb:	e9 50 fb ff ff       	jmpq   453020 <.plt>

00000000004534d0 <memmove@plt>:
  4534d0:	ff 25 92 4d 03 00    	jmpq   *0x34d92(%rip)        # 488268 <memmove@GLIBC_2.2.5>
  4534d6:	68 4a 00 00 00       	pushq  $0x4a
  4534db:	e9 40 fb ff ff       	jmpq   453020 <.plt>

00000000004534e0 <pthread_rwlock_unlock@plt>:
  4534e0:	ff 25 8a 4d 03 00    	jmpq   *0x34d8a(%rip)        # 488270 <pthread_rwlock_unlock@GLIBC_2.2.5>
  4534e6:	68 4b 00 00 00       	pushq  $0x4b
  4534eb:	e9 30 fb ff ff       	jmpq   453020 <.plt>

00000000004534f0 <__cxa_end_catch@plt>:
  4534f0:	ff 25 82 4d 03 00    	jmpq   *0x34d82(%rip)        # 488278 <__cxa_end_catch@CXXABI_1.3>
  4534f6:	68 4c 00 00 00       	pushq  $0x4c
  4534fb:	e9 20 fb ff ff       	jmpq   453020 <.plt>

0000000000453500 <pthread_once@plt>:
  453500:	ff 25 7a 4d 03 00    	jmpq   *0x34d7a(%rip)        # 488280 <pthread_once@GLIBC_2.2.5>
  453506:	68 4d 00 00 00       	pushq  $0x4d
  45350b:	e9 10 fb ff ff       	jmpq   453020 <.plt>

0000000000453510 <__gxx_personality_v0@plt>:
  453510:	ff 25 72 4d 03 00    	jmpq   *0x34d72(%rip)        # 488288 <__gxx_personality_v0@CXXABI_1.3>
  453516:	68 4e 00 00 00       	pushq  $0x4e
  45351b:	e9 00 fb ff ff       	jmpq   453020 <.plt>

0000000000453520 <__pthread_key_create@plt>:
  453520:	ff 25 6a 4d 03 00    	jmpq   *0x34d6a(%rip)        # 488290 <__pthread_key_create@GLIBC_2.2.5>
  453526:	68 4f 00 00 00       	pushq  $0x4f
  45352b:	e9 f0 fa ff ff       	jmpq   453020 <.plt>

0000000000453530 <_ZNSt11logic_errorC2ERKS_@plt>:
  453530:	ff 25 62 4d 03 00    	jmpq   *0x34d62(%rip)        # 488298 <_ZNSt11logic_errorC2ERKS_@GLIBCXX_3.4.21>
  453536:	68 50 00 00 00       	pushq  $0x50
  45353b:	e9 e0 fa ff ff       	jmpq   453020 <.plt>

0000000000453540 <_ZNSt28__atomic_futex_unsigned_base19_M_futex_wait_untilEPjjbNSt6chrono8durationIlSt5ratioILl1ELl1EEEENS2_IlS3_ILl1ELl1000000000EEEE@plt>:
  453540:	ff 25 5a 4d 03 00    	jmpq   *0x34d5a(%rip)        # 4882a0 <_ZNSt28__atomic_futex_unsigned_base19_M_futex_wait_untilEPjjbNSt6chrono8durationIlSt5ratioILl1ELl1EEEENS2_IlS3_ILl1ELl1000000000EEEE@GLIBCXX_3.4.21>
  453546:	68 51 00 00 00       	pushq  $0x51
  45354b:	e9 d0 fa ff ff       	jmpq   453020 <.plt>

0000000000453550 <_ZNSt18condition_variable10notify_allEv@plt>:
  453550:	ff 25 52 4d 03 00    	jmpq   *0x34d52(%rip)        # 4882a8 <_ZNSt18condition_variable10notify_allEv@GLIBCXX_3.4.11>
  453556:	68 52 00 00 00       	pushq  $0x52
  45355b:	e9 c0 fa ff ff       	jmpq   453020 <.plt>

0000000000453560 <_ZNSt6thread4joinEv@plt>:
  453560:	ff 25 4a 4d 03 00    	jmpq   *0x34d4a(%rip)        # 4882b0 <_ZNSt6thread4joinEv@GLIBCXX_3.4.11>
  453566:	68 53 00 00 00       	pushq  $0x53
  45356b:	e9 b0 fa ff ff       	jmpq   453020 <.plt>

0000000000453570 <__cxa_throw@plt>:
  453570:	ff 25 42 4d 03 00    	jmpq   *0x34d42(%rip)        # 4882b8 <__cxa_throw@CXXABI_1.3>
  453576:	68 54 00 00 00       	pushq  $0x54
  45357b:	e9 a0 fa ff ff       	jmpq   453020 <.plt>

0000000000453580 <_ZNSolsEi@plt>:
  453580:	ff 25 3a 4d 03 00    	jmpq   *0x34d3a(%rip)        # 4882c0 <_ZNSolsEi@GLIBCXX_3.4>
  453586:	68 55 00 00 00       	pushq  $0x55
  45358b:	e9 90 fa ff ff       	jmpq   453020 <.plt>

0000000000453590 <_ZNSt6thread6detachEv@plt>:
  453590:	ff 25 32 4d 03 00    	jmpq   *0x34d32(%rip)        # 4882c8 <_ZNSt6thread6detachEv@GLIBCXX_3.4.11>
  453596:	68 56 00 00 00       	pushq  $0x56
  45359b:	e9 80 fa ff ff       	jmpq   453020 <.plt>

00000000004535a0 <_Unwind_Resume@plt>:
  4535a0:	ff 25 2a 4d 03 00    	jmpq   *0x34d2a(%rip)        # 4882d0 <_Unwind_Resume@GCC_3.0>
  4535a6:	68 57 00 00 00       	pushq  $0x57
  4535ab:	e9 70 fa ff ff       	jmpq   453020 <.plt>

00000000004535b0 <_ZNSaIcEC1Ev@plt>:
  4535b0:	ff 25 22 4d 03 00    	jmpq   *0x34d22(%rip)        # 4882d8 <_ZNSaIcEC1Ev@GLIBCXX_3.4>
  4535b6:	68 58 00 00 00       	pushq  $0x58
  4535bb:	e9 60 fa ff ff       	jmpq   453020 <.plt>

00000000004535c0 <_ZNSolsEb@plt>:
  4535c0:	ff 25 1a 4d 03 00    	jmpq   *0x34d1a(%rip)        # 4882e0 <_ZNSolsEb@GLIBCXX_3.4>
  4535c6:	68 59 00 00 00       	pushq  $0x59
  4535cb:	e9 50 fa ff ff       	jmpq   453020 <.plt>

00000000004535d0 <_ZNSt7__cxx1112basic_stringIcSt11char_traitsIcESaIcEE9_M_createERmm@plt>:
  4535d0:	ff 25 12 4d 03 00    	jmpq   *0x34d12(%rip)        # 4882e8 <_ZNSt7__cxx1112basic_stringIcSt11char_traitsIcESaIcEE9_M_createERmm@GLIBCXX_3.4.21>
  4535d6:	68 5a 00 00 00       	pushq  $0x5a
  4535db:	e9 40 fa ff ff       	jmpq   453020 <.plt>

00000000004535e0 <_ZNSt18condition_variableD1Ev@plt>:
  4535e0:	ff 25 0a 4d 03 00    	jmpq   *0x34d0a(%rip)        # 4882f0 <_ZNSt18condition_variableD1Ev@GLIBCXX_3.4.11>
  4535e6:	68 5b 00 00 00       	pushq  $0x5b
  4535eb:	e9 30 fa ff ff       	jmpq   453020 <.plt>

00000000004535f0 <_ZNSolsEl@plt>:
  4535f0:	ff 25 02 4d 03 00    	jmpq   *0x34d02(%rip)        # 4882f8 <_ZNSolsEl@GLIBCXX_3.4>
  4535f6:	68 5c 00 00 00       	pushq  $0x5c
  4535fb:	e9 20 fa ff ff       	jmpq   453020 <.plt>

0000000000453600 <_ZNSt9exceptionD2Ev@plt>:
  453600:	ff 25 fa 4c 03 00    	jmpq   *0x34cfa(%rip)        # 488300 <_ZNSt9exceptionD2Ev@GLIBCXX_3.4>
  453606:	68 5d 00 00 00       	pushq  $0x5d
  45360b:	e9 10 fa ff ff       	jmpq   453020 <.plt>

0000000000453610 <_ZNSt15__exception_ptr13exception_ptrD1Ev@plt>:
  453610:	ff 25 f2 4c 03 00    	jmpq   *0x34cf2(%rip)        # 488308 <_ZNSt15__exception_ptr13exception_ptrD1Ev@CXXABI_1.3.3>
  453616:	68 5e 00 00 00       	pushq  $0x5e
  45361b:	e9 00 fa ff ff       	jmpq   453020 <.plt>

0000000000453620 <_ZNSolsEd@plt>:
  453620:	ff 25 ea 4c 03 00    	jmpq   *0x34cea(%rip)        # 488310 <_ZNSolsEd@GLIBCXX_3.4>
  453626:	68 5f 00 00 00       	pushq  $0x5f
  45362b:	e9 f0 f9 ff ff       	jmpq   453020 <.plt>

0000000000453630 <__cxa_pure_virtual@plt>:
  453630:	ff 25 e2 4c 03 00    	jmpq   *0x34ce2(%rip)        # 488318 <__cxa_pure_virtual@CXXABI_1.3>
  453636:	68 60 00 00 00       	pushq  $0x60
  45363b:	e9 e0 f9 ff ff       	jmpq   453020 <.plt>

0000000000453640 <_ZNSt12future_errorD1Ev@plt>:
  453640:	ff 25 da 4c 03 00    	jmpq   *0x34cda(%rip)        # 488320 <_ZNSt12future_errorD1Ev@GLIBCXX_3.4.14>
  453646:	68 61 00 00 00       	pushq  $0x61
  45364b:	e9 d0 f9 ff ff       	jmpq   453020 <.plt>

0000000000453650 <_ZNSt7__cxx1112basic_stringIcSt11char_traitsIcESaIcEE6appendERKS4_@plt>:
  453650:	ff 25 d2 4c 03 00    	jmpq   *0x34cd2(%rip)        # 488328 <_ZNSt7__cxx1112basic_stringIcSt11char_traitsIcESaIcEE6appendERKS4_@GLIBCXX_3.4.21>
  453656:	68 62 00 00 00       	pushq  $0x62
  45365b:	e9 c0 f9 ff ff       	jmpq   453020 <.plt>

0000000000453660 <_ZNSt7__cxx1112basic_stringIcSt11char_traitsIcESaIcEE11_M_capacityEm@plt>:
  453660:	ff 25 ca 4c 03 00    	jmpq   *0x34cca(%rip)        # 488330 <_ZNSt7__cxx1112basic_stringIcSt11char_traitsIcESaIcEE11_M_capacityEm@GLIBCXX_3.4.21>
  453666:	68 63 00 00 00       	pushq  $0x63
  45366b:	e9 b0 f9 ff ff       	jmpq   453020 <.plt>

0000000000453670 <_ZNSt8ios_base4InitD1Ev@plt>:
  453670:	ff 25 c2 4c 03 00    	jmpq   *0x34cc2(%rip)        # 488338 <_ZNSt8ios_base4InitD1Ev@GLIBCXX_3.4>
  453676:	68 64 00 00 00       	pushq  $0x64
  45367b:	e9 a0 f9 ff ff       	jmpq   453020 <.plt>

0000000000453680 <_ZNSt11logic_errorC2ERKNSt7__cxx1112basic_stringIcSt11char_traitsIcESaIcEEE@plt>:
  453680:	ff 25 ba 4c 03 00    	jmpq   *0x34cba(%rip)        # 488340 <_ZNSt11logic_errorC2ERKNSt7__cxx1112basic_stringIcSt11char_traitsIcESaIcEEE@GLIBCXX_3.4.21>
  453686:	68 65 00 00 00       	pushq  $0x65
  45368b:	e9 90 f9 ff ff       	jmpq   453020 <.plt>

Disassembly of section .text:

0000000000453690 <_start>:
  453690:	f3 0f 1e fa          	endbr64 
  453694:	31 ed                	xor    %ebp,%ebp
  453696:	49 89 d1             	mov    %rdx,%r9
  453699:	5e                   	pop    %rsi
  45369a:	48 89 e2             	mov    %rsp,%rdx
  45369d:	48 83 e4 f0          	and    $0xfffffffffffffff0,%rsp
  4536a1:	50                   	push   %rax
  4536a2:	54                   	push   %rsp
  4536a3:	49 c7 c0 20 ec 46 00 	mov    $0x46ec20,%r8
  4536aa:	48 c7 c1 b0 eb 46 00 	mov    $0x46ebb0,%rcx
  4536b1:	48 c7 c7 c4 ea 46 00 	mov    $0x46eac4,%rdi
  4536b8:	ff 15 22 49 03 00    	callq  *0x34922(%rip)        # 487fe0 <__libc_start_main@GLIBC_2.2.5>
  4536be:	f4                   	hlt    

00000000004536bf <.annobin_abi_note.c>:
  4536bf:	90                   	nop

00000000004536c0 <_dl_relocate_static_pie>:
  4536c0:	f3 0f 1e fa          	endbr64 
  4536c4:	c3                   	retq   

00000000004536c5 <.annobin__dl_relocate_static_pie.end>:
  4536c5:	66 2e 0f 1f 84 00 00 	nopw   %cs:0x0(%rax,%rax,1)
  4536cc:	00 00 00 
  4536cf:	90                   	nop

00000000004536d0 <deregister_tm_clones>:
  4536d0:	b8 58 83 48 00       	mov    $0x488358,%eax
  4536d5:	48 3d 58 83 48 00    	cmp    $0x488358,%rax
  4536db:	74 13                	je     4536f0 <deregister_tm_clones+0x20>
  4536dd:	b8 00 00 00 00       	mov    $0x0,%eax
  4536e2:	48 85 c0             	test   %rax,%rax
  4536e5:	74 09                	je     4536f0 <deregister_tm_clones+0x20>
  4536e7:	bf 58 83 48 00       	mov    $0x488358,%edi
  4536ec:	ff e0                	jmpq   *%rax
  4536ee:	66 90                	xchg   %ax,%ax
  4536f0:	c3                   	retq   
  4536f1:	66 66 2e 0f 1f 84 00 	data16 nopw %cs:0x0(%rax,%rax,1)
  4536f8:	00 00 00 00 
  4536fc:	0f 1f 40 00          	nopl   0x0(%rax)

0000000000453700 <register_tm_clones>:
  453700:	be 58 83 48 00       	mov    $0x488358,%esi
  453705:	48 81 ee 58 83 48 00 	sub    $0x488358,%rsi
  45370c:	48 89 f0             	mov    %rsi,%rax
  45370f:	48 c1 ee 3f          	shr    $0x3f,%rsi
  453713:	48 c1 f8 03          	sar    $0x3,%rax
  453717:	48 01 c6             	add    %rax,%rsi
  45371a:	48 d1 fe             	sar    %rsi
  45371d:	74 11                	je     453730 <register_tm_clones+0x30>
  45371f:	b8 00 00 00 00       	mov    $0x0,%eax
  453724:	48 85 c0             	test   %rax,%rax
  453727:	74 07                	je     453730 <register_tm_clones+0x30>
  453729:	bf 58 83 48 00       	mov    $0x488358,%edi
  45372e:	ff e0                	jmpq   *%rax
  453730:	c3                   	retq   
  453731:	66 66 2e 0f 1f 84 00 	data16 nopw %cs:0x0(%rax,%rax,1)
  453738:	00 00 00 00 
  45373c:	0f 1f 40 00          	nopl   0x0(%rax)

0000000000453740 <__do_global_dtors_aux>:
  453740:	f3 0f 1e fa          	endbr64 
  453744:	80 3d 45 4d 03 00 00 	cmpb   $0x0,0x34d45(%rip)        # 488490 <completed.0>
  45374b:	75 13                	jne    453760 <__do_global_dtors_aux+0x20>
  45374d:	55                   	push   %rbp
  45374e:	48 89 e5             	mov    %rsp,%rbp
  453751:	e8 7a ff ff ff       	callq  4536d0 <deregister_tm_clones>
  453756:	c6 05 33 4d 03 00 01 	movb   $0x1,0x34d33(%rip)        # 488490 <completed.0>
  45375d:	5d                   	pop    %rbp
  45375e:	c3                   	retq   
  45375f:	90                   	nop
  453760:	c3                   	retq   
  453761:	66 66 2e 0f 1f 84 00 	data16 nopw %cs:0x0(%rax,%rax,1)
  453768:	00 00 00 00 
  45376c:	0f 1f 40 00          	nopl   0x0(%rax)

0000000000453770 <frame_dummy>:
  453770:	f3 0f 1e fa          	endbr64 
  453774:	eb 8a                	jmp    453700 <register_tm_clones>

0000000000453776 <_ZN2C212do_some_workEv>:
  453776:	55                   	push   %rbp
  453777:	48 89 e5             	mov    %rsp,%rbp
  45377a:	be 65 f0 46 00       	mov    $0x46f065,%esi
  45377f:	bf 80 83 48 00       	mov    $0x488380,%edi
  453784:	e8 c7 fb ff ff       	callq  453350 <_ZStlsISt11char_traitsIcEERSt13basic_ostreamIcT_ES5_PKc@plt>
  453789:	be 70 31 45 00       	mov    $0x453170,%esi
  45378e:	48 89 c7             	mov    %rax,%rdi
  453791:	e8 0a fc ff ff       	callq  4533a0 <_ZNSolsEPFRSoS_E@plt>
  453796:	90                   	nop
  453797:	5d                   	pop    %rbp
  453798:	c3                   	retq   
  453799:	90                   	nop

000000000045379a <_ZN2C25Chap25test1Ev>:
  45379a:	55                   	push   %rbp
  45379b:	48 89 e5             	mov    %rsp,%rbp
  45379e:	53                   	push   %rbx
  45379f:	48 83 ec 38          	sub    $0x38,%rsp
  4537a3:	48 89 7d c8          	mov    %rdi,-0x38(%rbp)
  4537a7:	48 8d 45 e8          	lea    -0x18(%rbp),%rax
  4537ab:	be 76 37 45 00       	mov    $0x453776,%esi
  4537b0:	48 89 c7             	mov    %rax,%rdi
  4537b3:	e8 fc 0f 00 00       	callq  4547b4 <_ZNSt6threadC1IRFvvEJEvEEOT_DpOT0_>
  4537b8:	c7 45 e4 00 00 00 00 	movl   $0x0,-0x1c(%rbp)
  4537bf:	48 8d 55 e4          	lea    -0x1c(%rbp),%rdx
  4537c3:	48 8d 45 d8          	lea    -0x28(%rbp),%rax
  4537c7:	48 89 d6             	mov    %rdx,%rsi
  4537ca:	48 89 c7             	mov    %rax,%rdi
  4537cd:	e8 d6 0b 00 00       	callq  4543a8 <_ZN2C215background_taskC1ERi>
  4537d2:	48 8d 55 d8          	lea    -0x28(%rbp),%rdx
  4537d6:	48 8d 45 d0          	lea    -0x30(%rbp),%rax
  4537da:	48 89 d6             	mov    %rdx,%rsi
  4537dd:	48 89 c7             	mov    %rax,%rdi
  4537e0:	e8 57 10 00 00       	callq  45483c <_ZNSt6threadC1IRN2C215background_taskEJEvEEOT_DpOT0_>
  4537e5:	48 8d 45 e8          	lea    -0x18(%rbp),%rax
  4537e9:	48 89 c7             	mov    %rax,%rdi
  4537ec:	e8 6f fd ff ff       	callq  453560 <_ZNSt6thread4joinEv@plt>
  4537f1:	48 8d 45 d0          	lea    -0x30(%rbp),%rax
  4537f5:	48 89 c7             	mov    %rax,%rdi
  4537f8:	e8 63 fd ff ff       	callq  453560 <_ZNSt6thread4joinEv@plt>
  4537fd:	be 72 f0 46 00       	mov    $0x46f072,%esi
  453802:	bf 80 83 48 00       	mov    $0x488380,%edi
  453807:	e8 44 fb ff ff       	callq  453350 <_ZStlsISt11char_traitsIcEERSt13basic_ostreamIcT_ES5_PKc@plt>
  45380c:	48 89 c2             	mov    %rax,%rdx
  45380f:	8b 45 e4             	mov    -0x1c(%rbp),%eax
  453812:	89 c6                	mov    %eax,%esi
  453814:	48 89 d7             	mov    %rdx,%rdi
  453817:	e8 64 fd ff ff       	callq  453580 <_ZNSolsEi@plt>
  45381c:	be 70 31 45 00       	mov    $0x453170,%esi
  453821:	48 89 c7             	mov    %rax,%rdi
  453824:	e8 77 fb ff ff       	callq  4533a0 <_ZNSolsEPFRSoS_E@plt>
  453829:	48 8d 45 d0          	lea    -0x30(%rbp),%rax
  45382d:	48 89 c7             	mov    %rax,%rdi
  453830:	e8 23 0a 00 00       	callq  454258 <_ZNSt6threadD1Ev>
  453835:	48 8d 45 e8          	lea    -0x18(%rbp),%rax
  453839:	48 89 c7             	mov    %rax,%rdi
  45383c:	e8 17 0a 00 00       	callq  454258 <_ZNSt6threadD1Ev>
  453841:	eb 2b                	jmp    45386e <_ZN2C25Chap25test1Ev+0xd4>
  453843:	48 89 c3             	mov    %rax,%rbx
  453846:	48 8d 45 d0          	lea    -0x30(%rbp),%rax
  45384a:	48 89 c7             	mov    %rax,%rdi
  45384d:	e8 06 0a 00 00       	callq  454258 <_ZNSt6threadD1Ev>
  453852:	eb 03                	jmp    453857 <_ZN2C25Chap25test1Ev+0xbd>
  453854:	48 89 c3             	mov    %rax,%rbx
  453857:	48 8d 45 e8          	lea    -0x18(%rbp),%rax
  45385b:	48 89 c7             	mov    %rax,%rdi
  45385e:	e8 f5 09 00 00       	callq  454258 <_ZNSt6threadD1Ev>
  453863:	48 89 d8             	mov    %rbx,%rax
  453866:	48 89 c7             	mov    %rax,%rdi
  453869:	e8 32 fd ff ff       	callq  4535a0 <_Unwind_Resume@plt>
  45386e:	48 8b 5d f8          	mov    -0x8(%rbp),%rbx
  453872:	c9                   	leaveq 
  453873:	c3                   	retq   

0000000000453874 <_ZN2C25Chap25test2Ev>:
  453874:	55                   	push   %rbp
  453875:	48 89 e5             	mov    %rsp,%rbp
  453878:	53                   	push   %rbx
  453879:	48 83 ec 38          	sub    $0x38,%rsp
  45387d:	48 89 7d c8          	mov    %rdi,-0x38(%rbp)
  453881:	c7 45 ec 00 00 00 00 	movl   $0x0,-0x14(%rbp)
  453888:	48 8d 55 ec          	lea    -0x14(%rbp),%rdx
  45388c:	48 8d 45 e0          	lea    -0x20(%rbp),%rax
  453890:	48 89 d6             	mov    %rdx,%rsi
  453893:	48 89 c7             	mov    %rax,%rdi
  453896:	e8 0d 0b 00 00       	callq  4543a8 <_ZN2C215background_taskC1ERi>
  45389b:	48 8d 55 e0          	lea    -0x20(%rbp),%rdx
  45389f:	48 8d 45 d8          	lea    -0x28(%rbp),%rax
  4538a3:	48 89 d6             	mov    %rdx,%rsi
  4538a6:	48 89 c7             	mov    %rax,%rdi
  4538a9:	e8 8e 0f 00 00       	callq  45483c <_ZNSt6threadC1IRN2C215background_taskEJEvEEOT_DpOT0_>
  4538ae:	48 8d 55 d8          	lea    -0x28(%rbp),%rdx
  4538b2:	48 8d 45 d0          	lea    -0x30(%rbp),%rax
  4538b6:	48 89 d6             	mov    %rdx,%rsi
  4538b9:	48 89 c7             	mov    %rax,%rdi
  4538bc:	e8 3f 0c 00 00       	callq  454500 <_ZN2C212thread_guardC1ERSt6thread>
  4538c1:	be 7c f0 46 00       	mov    $0x46f07c,%esi
  4538c6:	bf 80 83 48 00       	mov    $0x488380,%edi
  4538cb:	e8 80 fa ff ff       	callq  453350 <_ZStlsISt11char_traitsIcEERSt13basic_ostreamIcT_ES5_PKc@plt>
  4538d0:	be 82 f0 46 00       	mov    $0x46f082,%esi
  4538d5:	48 89 c7             	mov    %rax,%rdi
  4538d8:	e8 73 fa ff ff       	callq  453350 <_ZStlsISt11char_traitsIcEERSt13basic_ostreamIcT_ES5_PKc@plt>
  4538dd:	48 89 c2             	mov    %rax,%rdx
  4538e0:	8b 45 ec             	mov    -0x14(%rbp),%eax
  4538e3:	89 c6                	mov    %eax,%esi
  4538e5:	48 89 d7             	mov    %rdx,%rdi
  4538e8:	e8 93 fc ff ff       	callq  453580 <_ZNSolsEi@plt>
  4538ed:	be 70 31 45 00       	mov    $0x453170,%esi
  4538f2:	48 89 c7             	mov    %rax,%rdi
  4538f5:	e8 a6 fa ff ff       	callq  4533a0 <_ZNSolsEPFRSoS_E@plt>
  4538fa:	48 8d 45 d0          	lea    -0x30(%rbp),%rax
  4538fe:	48 89 c7             	mov    %rax,%rdi
  453901:	e8 14 0c 00 00       	callq  45451a <_ZN2C212thread_guardD1Ev>
  453906:	48 8d 45 d8          	lea    -0x28(%rbp),%rax
  45390a:	48 89 c7             	mov    %rax,%rdi
  45390d:	e8 46 09 00 00       	callq  454258 <_ZNSt6threadD1Ev>
  453912:	eb 26                	jmp    45393a <_ZN2C25Chap25test2Ev+0xc6>
  453914:	48 89 c3             	mov    %rax,%rbx
  453917:	48 8d 45 d0          	lea    -0x30(%rbp),%rax
  45391b:	48 89 c7             	mov    %rax,%rdi
  45391e:	e8 f7 0b 00 00       	callq  45451a <_ZN2C212thread_guardD1Ev>
  453923:	48 8d 45 d8          	lea    -0x28(%rbp),%rax
  453927:	48 89 c7             	mov    %rax,%rdi
  45392a:	e8 29 09 00 00       	callq  454258 <_ZNSt6threadD1Ev>
  45392f:	48 89 d8             	mov    %rbx,%rax
  453932:	48 89 c7             	mov    %rax,%rdi
  453935:	e8 66 fc ff ff       	callq  4535a0 <_Unwind_Resume@plt>
  45393a:	48 8b 5d f8          	mov    -0x8(%rbp),%rbx
  45393e:	c9                   	leaveq 
  45393f:	c3                   	retq   

0000000000453940 <_ZN2C214update_data_fwEiRi>:
  453940:	55                   	push   %rbp
  453941:	48 89 e5             	mov    %rsp,%rbp
  453944:	48 83 ec 10          	sub    $0x10,%rsp
  453948:	89 7d fc             	mov    %edi,-0x4(%rbp)
  45394b:	48 89 75 f0          	mov    %rsi,-0x10(%rbp)
  45394f:	48 8b 45 f0          	mov    -0x10(%rbp),%rax
  453953:	8b 00                	mov    (%rax),%eax
  453955:	8d 50 01             	lea    0x1(%rax),%edx
  453958:	48 8b 45 f0          	mov    -0x10(%rbp),%rax
  45395c:	89 10                	mov    %edx,(%rax)
  45395e:	be 88 f0 46 00       	mov    $0x46f088,%esi
  453963:	bf 80 83 48 00       	mov    $0x488380,%edi
  453968:	e8 e3 f9 ff ff       	callq  453350 <_ZStlsISt11char_traitsIcEERSt13basic_ostreamIcT_ES5_PKc@plt>
  45396d:	48 89 c2             	mov    %rax,%rdx
  453970:	8b 45 fc             	mov    -0x4(%rbp),%eax
  453973:	89 c6                	mov    %eax,%esi
  453975:	48 89 d7             	mov    %rdx,%rdi
  453978:	e8 03 fc ff ff       	callq  453580 <_ZNSolsEi@plt>
  45397d:	be 8e f0 46 00       	mov    $0x46f08e,%esi
  453982:	48 89 c7             	mov    %rax,%rdi
  453985:	e8 c6 f9 ff ff       	callq  453350 <_ZStlsISt11char_traitsIcEERSt13basic_ostreamIcT_ES5_PKc@plt>
  45398a:	48 89 c2             	mov    %rax,%rdx
  45398d:	48 8b 45 f0          	mov    -0x10(%rbp),%rax
  453991:	8b 00                	mov    (%rax),%eax
  453993:	89 c6                	mov    %eax,%esi
  453995:	48 89 d7             	mov    %rdx,%rdi
  453998:	e8 e3 fb ff ff       	callq  453580 <_ZNSolsEi@plt>
  45399d:	be 97 f0 46 00       	mov    $0x46f097,%esi
  4539a2:	48 89 c7             	mov    %rax,%rdi
  4539a5:	e8 a6 f9 ff ff       	callq  453350 <_ZStlsISt11char_traitsIcEERSt13basic_ostreamIcT_ES5_PKc@plt>
  4539aa:	be 99 f0 46 00       	mov    $0x46f099,%esi
  4539af:	48 89 c7             	mov    %rax,%rdi
  4539b2:	e8 99 f9 ff ff       	callq  453350 <_ZStlsISt11char_traitsIcEERSt13basic_ostreamIcT_ES5_PKc@plt>
  4539b7:	be 70 31 45 00       	mov    $0x453170,%esi
  4539bc:	48 89 c7             	mov    %rax,%rdi
  4539bf:	e8 dc f9 ff ff       	callq  4533a0 <_ZNSolsEPFRSoS_E@plt>
  4539c4:	90                   	nop
  4539c5:	c9                   	leaveq 
  4539c6:	c3                   	retq   
  4539c7:	90                   	nop

00000000004539c8 <_ZN2C25Chap25test3Ev>:
  4539c8:	55                   	push   %rbp
  4539c9:	48 89 e5             	mov    %rsp,%rbp
  4539cc:	53                   	push   %rbx
  4539cd:	48 83 ec 38          	sub    $0x38,%rsp
  4539d1:	48 89 7d c8          	mov    %rdi,-0x38(%rbp)
  4539d5:	c7 45 e4 04 00 00 00 	movl   $0x4,-0x1c(%rbp)
  4539dc:	c7 45 e0 07 00 00 00 	movl   $0x7,-0x20(%rbp)
  4539e3:	48 8d 45 e0          	lea    -0x20(%rbp),%rax
  4539e7:	48 89 c7             	mov    %rax,%rdi
  4539ea:	e8 d5 0e 00 00       	callq  4548c4 <_ZSt3refIiESt17reference_wrapperIT_ERS1_>
  4539ef:	48 89 45 e8          	mov    %rax,-0x18(%rbp)
  4539f3:	48 8d 4d e8          	lea    -0x18(%rbp),%rcx
  4539f7:	48 8d 55 e4          	lea    -0x1c(%rbp),%rdx
  4539fb:	48 8d 45 d8          	lea    -0x28(%rbp),%rax
  4539ff:	be 40 39 45 00       	mov    $0x453940,%esi
  453a04:	48 89 c7             	mov    %rax,%rdi
  453a07:	e8 de 0e 00 00       	callq  4548ea <_ZNSt6threadC1IRFviRiEJS1_St17reference_wrapperIiEEvEEOT_DpOT0_>
  453a0c:	48 8d 45 d8          	lea    -0x28(%rbp),%rax
  453a10:	48 89 c7             	mov    %rax,%rdi
  453a13:	e8 48 fb ff ff       	callq  453560 <_ZNSt6thread4joinEv@plt>
  453a18:	be 88 f0 46 00       	mov    $0x46f088,%esi
  453a1d:	bf 80 83 48 00       	mov    $0x488380,%edi
  453a22:	e8 29 f9 ff ff       	callq  453350 <_ZStlsISt11char_traitsIcEERSt13basic_ostreamIcT_ES5_PKc@plt>
  453a27:	48 89 c2             	mov    %rax,%rdx
  453a2a:	8b 45 e4             	mov    -0x1c(%rbp),%eax
  453a2d:	89 c6                	mov    %eax,%esi
  453a2f:	48 89 d7             	mov    %rdx,%rdi
  453a32:	e8 49 fb ff ff       	callq  453580 <_ZNSolsEi@plt>
  453a37:	be 8e f0 46 00       	mov    $0x46f08e,%esi
  453a3c:	48 89 c7             	mov    %rax,%rdi
  453a3f:	e8 0c f9 ff ff       	callq  453350 <_ZStlsISt11char_traitsIcEERSt13basic_ostreamIcT_ES5_PKc@plt>
  453a44:	48 89 c2             	mov    %rax,%rdx
  453a47:	8b 45 e0             	mov    -0x20(%rbp),%eax
  453a4a:	89 c6                	mov    %eax,%esi
  453a4c:	48 89 d7             	mov    %rdx,%rdi
  453a4f:	e8 2c fb ff ff       	callq  453580 <_ZNSolsEi@plt>
  453a54:	be 97 f0 46 00       	mov    $0x46f097,%esi
  453a59:	48 89 c7             	mov    %rax,%rdi
  453a5c:	e8 ef f8 ff ff       	callq  453350 <_ZStlsISt11char_traitsIcEERSt13basic_ostreamIcT_ES5_PKc@plt>
  453a61:	be a8 f0 46 00       	mov    $0x46f0a8,%esi
  453a66:	48 89 c7             	mov    %rax,%rdi
  453a69:	e8 e2 f8 ff ff       	callq  453350 <_ZStlsISt11char_traitsIcEERSt13basic_ostreamIcT_ES5_PKc@plt>
  453a6e:	be 70 31 45 00       	mov    $0x453170,%esi
  453a73:	48 89 c7             	mov    %rax,%rdi
  453a76:	e8 25 f9 ff ff       	callq  4533a0 <_ZNSolsEPFRSoS_E@plt>
  453a7b:	48 8d 45 d8          	lea    -0x28(%rbp),%rax
  453a7f:	48 89 c7             	mov    %rax,%rdi
  453a82:	e8 d1 07 00 00       	callq  454258 <_ZNSt6threadD1Ev>
  453a87:	eb 1a                	jmp    453aa3 <_ZN2C25Chap25test3Ev+0xdb>
  453a89:	48 89 c3             	mov    %rax,%rbx
  453a8c:	48 8d 45 d8          	lea    -0x28(%rbp),%rax
  453a90:	48 89 c7             	mov    %rax,%rdi
  453a93:	e8 c0 07 00 00       	callq  454258 <_ZNSt6threadD1Ev>
  453a98:	48 89 d8             	mov    %rbx,%rax
  453a9b:	48 89 c7             	mov    %rax,%rdi
  453a9e:	e8 fd fa ff ff       	callq  4535a0 <_Unwind_Resume@plt>
  453aa3:	48 8b 5d f8          	mov    -0x8(%rbp),%rbx
  453aa7:	c9                   	leaveq 
  453aa8:	c3                   	retq   
  453aa9:	90                   	nop

0000000000453aaa <_ZN2C25Chap25test4Ev>:
  453aaa:	55                   	push   %rbp
  453aab:	48 89 e5             	mov    %rsp,%rbp
  453aae:	53                   	push   %rbx
  453aaf:	48 83 ec 48          	sub    $0x48,%rsp
  453ab3:	48 89 7d b8          	mov    %rdi,-0x48(%rbp)
  453ab7:	48 8d 45 d7          	lea    -0x29(%rbp),%rax
  453abb:	48 89 c7             	mov    %rax,%rdi
  453abe:	e8 dd 0e 00 00       	callq  4549a0 <_ZSt3refIN2C22X4EESt17reference_wrapperIT_ERS3_>
  453ac3:	48 89 45 d8          	mov    %rax,-0x28(%rbp)
  453ac7:	48 c7 45 e0 86 45 45 	movq   $0x454586,-0x20(%rbp)
  453ace:	00 
  453acf:	48 c7 45 e8 00 00 00 	movq   $0x0,-0x18(%rbp)
  453ad6:	00 
  453ad7:	48 8d 55 d8          	lea    -0x28(%rbp),%rdx
  453adb:	48 8d 4d e0          	lea    -0x20(%rbp),%rcx
  453adf:	48 8d 45 c8          	lea    -0x38(%rbp),%rax
  453ae3:	48 89 ce             	mov    %rcx,%rsi
  453ae6:	48 89 c7             	mov    %rax,%rdi
  453ae9:	e8 d8 0e 00 00       	callq  4549c6 <_ZNSt6threadC1IMN2C22X4EFvvEJSt17reference_wrapperIS2_EEvEEOT_DpOT0_>
  453aee:	48 8d 45 c8          	lea    -0x38(%rbp),%rax
  453af2:	48 89 c7             	mov    %rax,%rdi
  453af5:	e8 66 fa ff ff       	callq  453560 <_ZNSt6thread4joinEv@plt>
  453afa:	be b9 f0 46 00       	mov    $0x46f0b9,%esi
  453aff:	bf 80 83 48 00       	mov    $0x488380,%edi
  453b04:	e8 47 f8 ff ff       	callq  453350 <_ZStlsISt11char_traitsIcEERSt13basic_ostreamIcT_ES5_PKc@plt>
  453b09:	be c3 f0 46 00       	mov    $0x46f0c3,%esi
  453b0e:	48 89 c7             	mov    %rax,%rdi
  453b11:	e8 3a f8 ff ff       	callq  453350 <_ZStlsISt11char_traitsIcEERSt13basic_ostreamIcT_ES5_PKc@plt>
  453b16:	be 70 31 45 00       	mov    $0x453170,%esi
  453b1b:	48 89 c7             	mov    %rax,%rdi
  453b1e:	e8 7d f8 ff ff       	callq  4533a0 <_ZNSolsEPFRSoS_E@plt>
  453b23:	48 8d 45 c8          	lea    -0x38(%rbp),%rax
  453b27:	48 89 c7             	mov    %rax,%rdi
  453b2a:	e8 29 07 00 00       	callq  454258 <_ZNSt6threadD1Ev>
  453b2f:	eb 1a                	jmp    453b4b <_ZN2C25Chap25test4Ev+0xa1>
  453b31:	48 89 c3             	mov    %rax,%rbx
  453b34:	48 8d 45 c8          	lea    -0x38(%rbp),%rax
  453b38:	48 89 c7             	mov    %rax,%rdi
  453b3b:	e8 18 07 00 00       	callq  454258 <_ZNSt6threadD1Ev>
  453b40:	48 89 d8             	mov    %rbx,%rax
  453b43:	48 89 c7             	mov    %rax,%rdi
  453b46:	e8 55 fa ff ff       	callq  4535a0 <_Unwind_Resume@plt>
  453b4b:	48 8b 5d f8          	mov    -0x8(%rbp),%rbx
  453b4f:	c9                   	leaveq 
  453b50:	c3                   	retq   

0000000000453b51 <_ZN2C213process_test5ESt10unique_ptrINS_7big_objESt14default_deleteIS1_EE>:
  453b51:	55                   	push   %rbp
  453b52:	48 89 e5             	mov    %rsp,%rbp
  453b55:	53                   	push   %rbx
  453b56:	48 83 ec 18          	sub    $0x18,%rsp
  453b5a:	48 89 7d e8          	mov    %rdi,-0x18(%rbp)
  453b5e:	be c9 f0 46 00       	mov    $0x46f0c9,%esi
  453b63:	bf 80 83 48 00       	mov    $0x488380,%edi
  453b68:	e8 e3 f7 ff ff       	callq  453350 <_ZStlsISt11char_traitsIcEERSt13basic_ostreamIcT_ES5_PKc@plt>
  453b6d:	be d7 f0 46 00       	mov    $0x46f0d7,%esi
  453b72:	48 89 c7             	mov    %rax,%rdi
  453b75:	e8 d6 f7 ff ff       	callq  453350 <_ZStlsISt11char_traitsIcEERSt13basic_ostreamIcT_ES5_PKc@plt>
  453b7a:	48 89 c3             	mov    %rax,%rbx
  453b7d:	48 8b 45 e8          	mov    -0x18(%rbp),%rax
  453b81:	48 89 c7             	mov    %rax,%rdi
  453b84:	e8 db 0e 00 00       	callq  454a64 <_ZNKSt10unique_ptrIN2C27big_objESt14default_deleteIS1_EEptEv>
  453b89:	48 8b 00             	mov    (%rax),%rax
  453b8c:	8b 00                	mov    (%rax),%eax
  453b8e:	89 c6                	mov    %eax,%esi
  453b90:	48 89 df             	mov    %rbx,%rdi
  453b93:	e8 e8 f9 ff ff       	callq  453580 <_ZNSolsEi@plt>
  453b98:	be 70 31 45 00       	mov    $0x453170,%esi
  453b9d:	48 89 c7             	mov    %rax,%rdi
  453ba0:	e8 fb f7 ff ff       	callq  4533a0 <_ZNSolsEPFRSoS_E@plt>
  453ba5:	be e9 f0 46 00       	mov    $0x46f0e9,%esi
  453baa:	bf 80 83 48 00       	mov    $0x488380,%edi
  453baf:	e8 9c f7 ff ff       	callq  453350 <_ZStlsISt11char_traitsIcEERSt13basic_ostreamIcT_ES5_PKc@plt>
  453bb4:	48 89 c3             	mov    %rax,%rbx
  453bb7:	48 8b 45 e8          	mov    -0x18(%rbp),%rax
  453bbb:	48 89 c7             	mov    %rax,%rdi
  453bbe:	e8 a1 0e 00 00       	callq  454a64 <_ZNKSt10unique_ptrIN2C27big_objESt14default_deleteIS1_EEptEv>
  453bc3:	48 8b 00             	mov    (%rax),%rax
  453bc6:	48 89 c6             	mov    %rax,%rsi
  453bc9:	48 89 df             	mov    %rbx,%rdi
  453bcc:	e8 df f6 ff ff       	callq  4532b0 <_ZNSolsEPKv@plt>
  453bd1:	be 70 31 45 00       	mov    $0x453170,%esi
  453bd6:	48 89 c7             	mov    %rax,%rdi
  453bd9:	e8 c2 f7 ff ff       	callq  4533a0 <_ZNSolsEPFRSoS_E@plt>
  453bde:	90                   	nop
  453bdf:	48 8b 5d f8          	mov    -0x8(%rbp),%rbx
  453be3:	c9                   	leaveq 
  453be4:	c3                   	retq   
  453be5:	90                   	nop

0000000000453be6 <_ZN2C25Chap25test5Ev>:
  453be6:	55                   	push   %rbp
  453be7:	48 89 e5             	mov    %rsp,%rbp
  453bea:	53                   	push   %rbx
  453beb:	48 83 ec 28          	sub    $0x28,%rsp
  453bef:	48 89 7d d8          	mov    %rdi,-0x28(%rbp)
  453bf3:	bf 08 00 00 00       	mov    $0x8,%edi
  453bf8:	e8 63 f7 ff ff       	callq  453360 <_Znwm@plt>
  453bfd:	48 89 c6             	mov    %rax,%rsi
  453c00:	48 89 75 d0          	mov    %rsi,-0x30(%rbp)
  453c04:	48 89 f7             	mov    %rsi,%rdi
  453c07:	e8 b2 09 00 00       	callq  4545be <_ZN2C27big_objC1Ev>
  453c0c:	48 8d 45 e8          	lea    -0x18(%rbp),%rax
  453c10:	48 8b 75 d0          	mov    -0x30(%rbp),%rsi
  453c14:	48 89 c7             	mov    %rax,%rdi
  453c17:	e8 88 0e 00 00       	callq  454aa4 <_ZNSt10unique_ptrIN2C27big_objESt14default_deleteIS1_EEC1IS3_vEEPS1_>
  453c1c:	be e9 f0 46 00       	mov    $0x46f0e9,%esi
  453c21:	bf 80 83 48 00       	mov    $0x488380,%edi
  453c26:	e8 25 f7 ff ff       	callq  453350 <_ZStlsISt11char_traitsIcEERSt13basic_ostreamIcT_ES5_PKc@plt>
  453c2b:	48 89 c3             	mov    %rax,%rbx
  453c2e:	48 8d 45 e8          	lea    -0x18(%rbp),%rax
  453c32:	48 89 c7             	mov    %rax,%rdi
  453c35:	e8 2a 0e 00 00       	callq  454a64 <_ZNKSt10unique_ptrIN2C27big_objESt14default_deleteIS1_EEptEv>
  453c3a:	48 8b 00             	mov    (%rax),%rax
  453c3d:	48 89 c6             	mov    %rax,%rsi
  453c40:	48 89 df             	mov    %rbx,%rdi
  453c43:	e8 68 f6 ff ff       	callq  4532b0 <_ZNSolsEPKv@plt>
  453c48:	be 70 31 45 00       	mov    $0x453170,%esi
  453c4d:	48 89 c7             	mov    %rax,%rdi
  453c50:	e8 4b f7 ff ff       	callq  4533a0 <_ZNSolsEPFRSoS_E@plt>
  453c55:	48 8d 45 e8          	lea    -0x18(%rbp),%rax
  453c59:	48 89 c7             	mov    %rax,%rdi
  453c5c:	e8 cd 0e 00 00       	callq  454b2e <_ZSt4moveIRSt10unique_ptrIN2C27big_objESt14default_deleteIS2_EEEONSt16remove_referenceIT_E4typeEOS8_>
  453c61:	48 89 c2             	mov    %rax,%rdx
  453c64:	48 8d 45 e0          	lea    -0x20(%rbp),%rax
  453c68:	be 51 3b 45 00       	mov    $0x453b51,%esi
  453c6d:	48 89 c7             	mov    %rax,%rdi
  453c70:	e8 c7 0e 00 00       	callq  454b3c <_ZNSt6threadC1IRFvSt10unique_ptrIN2C27big_objESt14default_deleteIS3_EEEJS6_EvEEOT_DpOT0_>
  453c75:	48 8d 45 e0          	lea    -0x20(%rbp),%rax
  453c79:	48 89 c7             	mov    %rax,%rdi
  453c7c:	e8 df f8 ff ff       	callq  453560 <_ZNSt6thread4joinEv@plt>
  453c81:	be ee f0 46 00       	mov    $0x46f0ee,%esi
  453c86:	bf 80 83 48 00       	mov    $0x488380,%edi
  453c8b:	e8 c0 f6 ff ff       	callq  453350 <_ZStlsISt11char_traitsIcEERSt13basic_ostreamIcT_ES5_PKc@plt>
  453c90:	be f4 f0 46 00       	mov    $0x46f0f4,%esi
  453c95:	48 89 c7             	mov    %rax,%rdi
  453c98:	e8 b3 f6 ff ff       	callq  453350 <_ZStlsISt11char_traitsIcEERSt13basic_ostreamIcT_ES5_PKc@plt>
  453c9d:	be 70 31 45 00       	mov    $0x453170,%esi
  453ca2:	48 89 c7             	mov    %rax,%rdi
  453ca5:	e8 f6 f6 ff ff       	callq  4533a0 <_ZNSolsEPFRSoS_E@plt>
  453caa:	48 8d 45 e0          	lea    -0x20(%rbp),%rax
  453cae:	48 89 c7             	mov    %rax,%rdi
  453cb1:	e8 a2 05 00 00       	callq  454258 <_ZNSt6threadD1Ev>
  453cb6:	48 8d 45 e8          	lea    -0x18(%rbp),%rax
  453cba:	48 89 c7             	mov    %rax,%rdi
  453cbd:	e8 08 0e 00 00       	callq  454aca <_ZNSt10unique_ptrIN2C27big_objESt14default_deleteIS1_EED1Ev>
  453cc2:	eb 47                	jmp    453d0b <_ZN2C25Chap25test5Ev+0x125>
  453cc4:	48 89 c3             	mov    %rax,%rbx
  453cc7:	be 08 00 00 00       	mov    $0x8,%esi
  453ccc:	48 8b 7d d0          	mov    -0x30(%rbp),%rdi
  453cd0:	e8 9b f6 ff ff       	callq  453370 <_ZdlPvm@plt>
  453cd5:	48 89 d8             	mov    %rbx,%rax
  453cd8:	48 89 c7             	mov    %rax,%rdi
  453cdb:	e8 c0 f8 ff ff       	callq  4535a0 <_Unwind_Resume@plt>
  453ce0:	48 89 c3             	mov    %rax,%rbx
  453ce3:	48 8d 45 e0          	lea    -0x20(%rbp),%rax
  453ce7:	48 89 c7             	mov    %rax,%rdi
  453cea:	e8 69 05 00 00       	callq  454258 <_ZNSt6threadD1Ev>
  453cef:	eb 03                	jmp    453cf4 <_ZN2C25Chap25test5Ev+0x10e>
  453cf1:	48 89 c3             	mov    %rax,%rbx
  453cf4:	48 8d 45 e8          	lea    -0x18(%rbp),%rax
  453cf8:	48 89 c7             	mov    %rax,%rdi
  453cfb:	e8 ca 0d 00 00       	callq  454aca <_ZNSt10unique_ptrIN2C27big_objESt14default_deleteIS1_EED1Ev>
  453d00:	48 89 d8             	mov    %rbx,%rax
  453d03:	48 89 c7             	mov    %rax,%rdi
  453d06:	e8 95 f8 ff ff       	callq  4535a0 <_Unwind_Resume@plt>
  453d0b:	48 8b 5d f8          	mov    -0x8(%rbp),%rbx
  453d0f:	c9                   	leaveq 
  453d10:	c3                   	retq   

0000000000453d11 <_ZN2C29some_funcEv>:
  453d11:	55                   	push   %rbp
  453d12:	48 89 e5             	mov    %rsp,%rbp
  453d15:	53                   	push   %rbx
  453d16:	48 83 ec 08          	sub    $0x8,%rsp
  453d1a:	be ff f0 46 00       	mov    $0x46f0ff,%esi
  453d1f:	bf 80 83 48 00       	mov    $0x488380,%edi
  453d24:	e8 27 f6 ff ff       	callq  453350 <_ZStlsISt11char_traitsIcEERSt13basic_ostreamIcT_ES5_PKc@plt>
  453d29:	be 09 f1 46 00       	mov    $0x46f109,%esi
  453d2e:	48 89 c7             	mov    %rax,%rdi
  453d31:	e8 1a f6 ff ff       	callq  453350 <_ZStlsISt11char_traitsIcEERSt13basic_ostreamIcT_ES5_PKc@plt>
  453d36:	be 13 f1 46 00       	mov    $0x46f113,%esi
  453d3b:	48 89 c7             	mov    %rax,%rdi
  453d3e:	e8 0d f6 ff ff       	callq  453350 <_ZStlsISt11char_traitsIcEERSt13basic_ostreamIcT_ES5_PKc@plt>
  453d43:	48 89 c3             	mov    %rax,%rbx
  453d46:	e8 13 06 00 00       	callq  45435e <_ZNSt11this_thread6get_idEv>
  453d4b:	48 89 c6             	mov    %rax,%rsi
  453d4e:	48 89 df             	mov    %rbx,%rdi
  453d51:	e8 84 0e 00 00       	callq  454bda <_ZStlsIcSt11char_traitsIcEERSt13basic_ostreamIT_T0_ES6_NSt6thread2idE>
  453d56:	be 70 31 45 00       	mov    $0x453170,%esi
  453d5b:	48 89 c7             	mov    %rax,%rdi
  453d5e:	e8 3d f6 ff ff       	callq  4533a0 <_ZNSolsEPFRSoS_E@plt>
  453d63:	bf 01 00 00 00       	mov    $0x1,%edi
  453d68:	e8 13 f5 ff ff       	callq  453280 <sleep@plt>
  453d6d:	eb ab                	jmp    453d1a <_ZN2C29some_funcEv+0x9>

0000000000453d6f <_ZN2C215some_other_funcEv>:
  453d6f:	55                   	push   %rbp
  453d70:	48 89 e5             	mov    %rsp,%rbp
  453d73:	53                   	push   %rbx
  453d74:	48 83 ec 08          	sub    $0x8,%rsp
  453d78:	be ff f0 46 00       	mov    $0x46f0ff,%esi
  453d7d:	bf 80 83 48 00       	mov    $0x488380,%edi
  453d82:	e8 c9 f5 ff ff       	callq  453350 <_ZStlsISt11char_traitsIcEERSt13basic_ostreamIcT_ES5_PKc@plt>
  453d87:	be 21 f1 46 00       	mov    $0x46f121,%esi
  453d8c:	48 89 c7             	mov    %rax,%rdi
  453d8f:	e8 bc f5 ff ff       	callq  453350 <_ZStlsISt11char_traitsIcEERSt13basic_ostreamIcT_ES5_PKc@plt>
  453d94:	be 13 f1 46 00       	mov    $0x46f113,%esi
  453d99:	48 89 c7             	mov    %rax,%rdi
  453d9c:	e8 af f5 ff ff       	callq  453350 <_ZStlsISt11char_traitsIcEERSt13basic_ostreamIcT_ES5_PKc@plt>
  453da1:	48 89 c3             	mov    %rax,%rbx
  453da4:	e8 b5 05 00 00       	callq  45435e <_ZNSt11this_thread6get_idEv>
  453da9:	48 89 c6             	mov    %rax,%rsi
  453dac:	48 89 df             	mov    %rbx,%rdi
  453daf:	e8 26 0e 00 00       	callq  454bda <_ZStlsIcSt11char_traitsIcEERSt13basic_ostreamIT_T0_ES6_NSt6thread2idE>
  453db4:	be 70 31 45 00       	mov    $0x453170,%esi
  453db9:	48 89 c7             	mov    %rax,%rdi
  453dbc:	e8 df f5 ff ff       	callq  4533a0 <_ZNSolsEPFRSoS_E@plt>
  453dc1:	bf 01 00 00 00       	mov    $0x1,%edi
  453dc6:	e8 b5 f4 ff ff       	callq  453280 <sleep@plt>
  453dcb:	eb ab                	jmp    453d78 <_ZN2C215some_other_funcEv+0x9>
  453dcd:	90                   	nop

0000000000453dce <_ZN2C25Chap25test6Ev>:
  453dce:	55                   	push   %rbp
  453dcf:	48 89 e5             	mov    %rsp,%rbp
  453dd2:	53                   	push   %rbx
  453dd3:	48 83 ec 38          	sub    $0x38,%rsp
  453dd7:	48 89 7d c8          	mov    %rdi,-0x38(%rbp)
  453ddb:	48 8d 45 e0          	lea    -0x20(%rbp),%rax
  453ddf:	be 11 3d 45 00       	mov    $0x453d11,%esi
  453de4:	48 89 c7             	mov    %rax,%rdi
  453de7:	e8 c8 09 00 00       	callq  4547b4 <_ZNSt6threadC1IRFvvEJEvEEOT_DpOT0_>
  453dec:	be 31 f1 46 00       	mov    $0x46f131,%esi
  453df1:	bf 80 83 48 00       	mov    $0x488380,%edi
  453df6:	e8 55 f5 ff ff       	callq  453350 <_ZStlsISt11char_traitsIcEERSt13basic_ostreamIcT_ES5_PKc@plt>
  453dfb:	be 70 31 45 00       	mov    $0x453170,%esi
  453e00:	48 89 c7             	mov    %rax,%rdi
  453e03:	e8 98 f5 ff ff       	callq  4533a0 <_ZNSolsEPFRSoS_E@plt>
  453e08:	bf 03 00 00 00       	mov    $0x3,%edi
  453e0d:	e8 6e f4 ff ff       	callq  453280 <sleep@plt>
  453e12:	48 8d 45 e0          	lea    -0x20(%rbp),%rax
  453e16:	48 89 c7             	mov    %rax,%rdi
  453e19:	e8 18 0e 00 00       	callq  454c36 <_ZSt4moveIRSt6threadEONSt16remove_referenceIT_E4typeEOS3_>
  453e1e:	48 89 c2             	mov    %rax,%rdx
  453e21:	48 8d 45 d8          	lea    -0x28(%rbp),%rax
  453e25:	48 89 d6             	mov    %rdx,%rsi
  453e28:	48 89 c7             	mov    %rax,%rdi
  453e2b:	e8 4c 04 00 00       	callq  45427c <_ZNSt6threadC1EOS_>
  453e30:	be 39 f1 46 00       	mov    $0x46f139,%esi
  453e35:	bf 80 83 48 00       	mov    $0x488380,%edi
  453e3a:	e8 11 f5 ff ff       	callq  453350 <_ZStlsISt11char_traitsIcEERSt13basic_ostreamIcT_ES5_PKc@plt>
  453e3f:	be 70 31 45 00       	mov    $0x453170,%esi
  453e44:	48 89 c7             	mov    %rax,%rdi
  453e47:	e8 54 f5 ff ff       	callq  4533a0 <_ZNSolsEPFRSoS_E@plt>
  453e4c:	bf 04 00 00 00       	mov    $0x4,%edi
  453e51:	e8 2a f4 ff ff       	callq  453280 <sleep@plt>
  453e56:	48 8d 45 e8          	lea    -0x18(%rbp),%rax
  453e5a:	be 6f 3d 45 00       	mov    $0x453d6f,%esi
  453e5f:	48 89 c7             	mov    %rax,%rdi
  453e62:	e8 4d 09 00 00       	callq  4547b4 <_ZNSt6threadC1IRFvvEJEvEEOT_DpOT0_>
  453e67:	48 8d 55 e8          	lea    -0x18(%rbp),%rdx
  453e6b:	48 8d 45 e0          	lea    -0x20(%rbp),%rax
  453e6f:	48 89 d6             	mov    %rdx,%rsi
  453e72:	48 89 c7             	mov    %rax,%rdi
  453e75:	e8 34 04 00 00       	callq  4542ae <_ZNSt6threadaSEOS_>
  453e7a:	48 8d 45 e8          	lea    -0x18(%rbp),%rax
  453e7e:	48 89 c7             	mov    %rax,%rdi
  453e81:	e8 d2 03 00 00       	callq  454258 <_ZNSt6threadD1Ev>
  453e86:	be 48 f1 46 00       	mov    $0x46f148,%esi
  453e8b:	bf 80 83 48 00       	mov    $0x488380,%edi
  453e90:	e8 bb f4 ff ff       	callq  453350 <_ZStlsISt11char_traitsIcEERSt13basic_ostreamIcT_ES5_PKc@plt>
  453e95:	be 70 31 45 00       	mov    $0x453170,%esi
  453e9a:	48 89 c7             	mov    %rax,%rdi
  453e9d:	e8 fe f4 ff ff       	callq  4533a0 <_ZNSolsEPFRSoS_E@plt>
  453ea2:	bf 04 00 00 00       	mov    $0x4,%edi
  453ea7:	e8 d4 f3 ff ff       	callq  453280 <sleep@plt>
  453eac:	48 8d 45 d0          	lea    -0x30(%rbp),%rax
  453eb0:	48 89 c7             	mov    %rax,%rdi
  453eb3:	e8 38 07 00 00       	callq  4545f0 <_ZNSt6threadC1Ev>
  453eb8:	48 8d 45 d8          	lea    -0x28(%rbp),%rax
  453ebc:	48 89 c7             	mov    %rax,%rdi
  453ebf:	e8 72 0d 00 00       	callq  454c36 <_ZSt4moveIRSt6threadEONSt16remove_referenceIT_E4typeEOS3_>
  453ec4:	48 89 c2             	mov    %rax,%rdx
  453ec7:	48 8d 45 d0          	lea    -0x30(%rbp),%rax
  453ecb:	48 89 d6             	mov    %rdx,%rsi
  453ece:	48 89 c7             	mov    %rax,%rdi
  453ed1:	e8 d8 03 00 00       	callq  4542ae <_ZNSt6threadaSEOS_>
  453ed6:	be 58 f1 46 00       	mov    $0x46f158,%esi
  453edb:	bf 80 83 48 00       	mov    $0x488380,%edi
  453ee0:	e8 6b f4 ff ff       	callq  453350 <_ZStlsISt11char_traitsIcEERSt13basic_ostreamIcT_ES5_PKc@plt>
  453ee5:	be 70 31 45 00       	mov    $0x453170,%esi
  453eea:	48 89 c7             	mov    %rax,%rdi
  453eed:	e8 ae f4 ff ff       	callq  4533a0 <_ZNSolsEPFRSoS_E@plt>
  453ef2:	bf 03 00 00 00       	mov    $0x3,%edi
  453ef7:	e8 84 f3 ff ff       	callq  453280 <sleep@plt>
  453efc:	48 8d 45 e0          	lea    -0x20(%rbp),%rax
  453f00:	48 89 c7             	mov    %rax,%rdi
  453f03:	e8 88 f6 ff ff       	callq  453590 <_ZNSt6thread6detachEv@plt>
  453f08:	48 8d 45 d0          	lea    -0x30(%rbp),%rax
  453f0c:	48 89 c7             	mov    %rax,%rdi
  453f0f:	e8 22 0d 00 00       	callq  454c36 <_ZSt4moveIRSt6threadEONSt16remove_referenceIT_E4typeEOS3_>
  453f14:	48 89 c2             	mov    %rax,%rdx
  453f17:	48 8d 45 e0          	lea    -0x20(%rbp),%rax
  453f1b:	48 89 d6             	mov    %rdx,%rsi
  453f1e:	48 89 c7             	mov    %rax,%rdi
  453f21:	e8 88 03 00 00       	callq  4542ae <_ZNSt6threadaSEOS_>
  453f26:	be 67 f1 46 00       	mov    $0x46f167,%esi
  453f2b:	bf 80 83 48 00       	mov    $0x488380,%edi
  453f30:	e8 1b f4 ff ff       	callq  453350 <_ZStlsISt11char_traitsIcEERSt13basic_ostreamIcT_ES5_PKc@plt>
  453f35:	be 70 31 45 00       	mov    $0x453170,%esi
  453f3a:	48 89 c7             	mov    %rax,%rdi
  453f3d:	e8 5e f4 ff ff       	callq  4533a0 <_ZNSolsEPFRSoS_E@plt>
  453f42:	bf 05 00 00 00       	mov    $0x5,%edi
  453f47:	e8 34 f3 ff ff       	callq  453280 <sleep@plt>
  453f4c:	48 8d 45 d0          	lea    -0x30(%rbp),%rax
  453f50:	48 89 c7             	mov    %rax,%rdi
  453f53:	e8 00 03 00 00       	callq  454258 <_ZNSt6threadD1Ev>
  453f58:	48 8d 45 d8          	lea    -0x28(%rbp),%rax
  453f5c:	48 89 c7             	mov    %rax,%rdi
  453f5f:	e8 f4 02 00 00       	callq  454258 <_ZNSt6threadD1Ev>
  453f64:	48 8d 45 e0          	lea    -0x20(%rbp),%rax
  453f68:	48 89 c7             	mov    %rax,%rdi
  453f6b:	e8 e8 02 00 00       	callq  454258 <_ZNSt6threadD1Ev>
  453f70:	eb 3c                	jmp    453fae <_ZN2C25Chap25test6Ev+0x1e0>
  453f72:	48 89 c3             	mov    %rax,%rbx
  453f75:	48 8d 45 d0          	lea    -0x30(%rbp),%rax
  453f79:	48 89 c7             	mov    %rax,%rdi
  453f7c:	e8 d7 02 00 00       	callq  454258 <_ZNSt6threadD1Ev>
  453f81:	eb 03                	jmp    453f86 <_ZN2C25Chap25test6Ev+0x1b8>
  453f83:	48 89 c3             	mov    %rax,%rbx
  453f86:	48 8d 45 d8          	lea    -0x28(%rbp),%rax
  453f8a:	48 89 c7             	mov    %rax,%rdi
  453f8d:	e8 c6 02 00 00       	callq  454258 <_ZNSt6threadD1Ev>
  453f92:	eb 03                	jmp    453f97 <_ZN2C25Chap25test6Ev+0x1c9>
  453f94:	48 89 c3             	mov    %rax,%rbx
  453f97:	48 8d 45 e0          	lea    -0x20(%rbp),%rax
  453f9b:	48 89 c7             	mov    %rax,%rdi
  453f9e:	e8 b5 02 00 00       	callq  454258 <_ZNSt6threadD1Ev>
  453fa3:	48 89 d8             	mov    %rbx,%rax
  453fa6:	48 89 c7             	mov    %rax,%rdi
  453fa9:	e8 f2 f5 ff ff       	callq  4535a0 <_Unwind_Resume@plt>
  453fae:	48 8b 5d f8          	mov    -0x8(%rbp),%rbx
  453fb2:	c9                   	leaveq 
  453fb3:	c3                   	retq   

0000000000453fb4 <_ZN2C25Chap25test8Ev>:
  453fb4:	55                   	push   %rbp
  453fb5:	48 89 e5             	mov    %rsp,%rbp
  453fb8:	53                   	push   %rbx
  453fb9:	48 83 ec 38          	sub    $0x38,%rsp
  453fbd:	48 89 7d c8          	mov    %rdi,-0x38(%rbp)
  453fc1:	c7 45 dc 00 00 00 00 	movl   $0x0,-0x24(%rbp)
  453fc8:	be 92 f1 46 00       	mov    $0x46f192,%esi
  453fcd:	bf 80 83 48 00       	mov    $0x488380,%edi
  453fd2:	e8 79 f3 ff ff       	callq  453350 <_ZStlsISt11char_traitsIcEERSt13basic_ostreamIcT_ES5_PKc@plt>
  453fd7:	be 9a f1 46 00       	mov    $0x46f19a,%esi
  453fdc:	48 89 c7             	mov    %rax,%rdi
  453fdf:	e8 6c f3 ff ff       	callq  453350 <_ZStlsISt11char_traitsIcEERSt13basic_ostreamIcT_ES5_PKc@plt>
  453fe4:	be 70 31 45 00       	mov    $0x453170,%esi
  453fe9:	48 89 c7             	mov    %rax,%rdi
  453fec:	e8 af f3 ff ff       	callq  4533a0 <_ZNSolsEPFRSoS_E@plt>
  453ff1:	48 8d 55 dc          	lea    -0x24(%rbp),%rdx
  453ff5:	48 8d 45 e8          	lea    -0x18(%rbp),%rax
  453ff9:	48 89 d6             	mov    %rdx,%rsi
  453ffc:	48 89 c7             	mov    %rax,%rdi
  453fff:	e8 a4 03 00 00       	callq  4543a8 <_ZN2C215background_taskC1ERi>
  454004:	48 8d 55 e8          	lea    -0x18(%rbp),%rdx
  454008:	48 8d 45 e0          	lea    -0x20(%rbp),%rax
  45400c:	48 89 d6             	mov    %rdx,%rsi
  45400f:	48 89 c7             	mov    %rax,%rdi
  454012:	e8 2d 0c 00 00       	callq  454c44 <_ZNSt6threadC1IN2C215background_taskEJEvEEOT_DpOT0_>
  454017:	48 8d 55 e0          	lea    -0x20(%rbp),%rdx
  45401b:	48 8d 45 d0          	lea    -0x30(%rbp),%rax
  45401f:	48 89 d6             	mov    %rdx,%rsi
  454022:	48 89 c7             	mov    %rax,%rdi
  454025:	e8 e2 05 00 00       	callq  45460c <_ZN2C213scoped_threadC1ESt6thread>
  45402a:	48 8d 45 e0          	lea    -0x20(%rbp),%rax
  45402e:	48 89 c7             	mov    %rax,%rdi
  454031:	e8 22 02 00 00       	callq  454258 <_ZNSt6threadD1Ev>
  454036:	48 8d 45 d0          	lea    -0x30(%rbp),%rax
  45403a:	48 89 c7             	mov    %rax,%rdi
  45403d:	e8 a4 06 00 00       	callq  4546e6 <_ZN2C213scoped_threadD1Ev>
  454042:	eb 1a                	jmp    45405e <_ZN2C25Chap25test8Ev+0xaa>
  454044:	48 89 c3             	mov    %rax,%rbx
  454047:	48 8d 45 e0          	lea    -0x20(%rbp),%rax
  45404b:	48 89 c7             	mov    %rax,%rdi
  45404e:	e8 05 02 00 00       	callq  454258 <_ZNSt6threadD1Ev>
  454053:	48 89 d8             	mov    %rbx,%rax
  454056:	48 89 c7             	mov    %rax,%rdi
  454059:	e8 42 f5 ff ff       	callq  4535a0 <_Unwind_Resume@plt>
  45405e:	48 8b 5d f8          	mov    -0x8(%rbp),%rbx
  454062:	c9                   	leaveq 
  454063:	c3                   	retq   

0000000000454064 <_ZN2C210do_work_t9Ej>:
  454064:	55                   	push   %rbp
  454065:	48 89 e5             	mov    %rsp,%rbp
  454068:	48 83 ec 10          	sub    $0x10,%rsp
  45406c:	89 7d fc             	mov    %edi,-0x4(%rbp)
  45406f:	be a0 f1 46 00       	mov    $0x46f1a0,%esi
  454074:	bf 80 83 48 00       	mov    $0x488380,%edi
  454079:	e8 d2 f2 ff ff       	callq  453350 <_ZStlsISt11char_traitsIcEERSt13basic_ostreamIcT_ES5_PKc@plt>
  45407e:	48 89 c2             	mov    %rax,%rdx
  454081:	8b 45 fc             	mov    -0x4(%rbp),%eax
  454084:	89 c6                	mov    %eax,%esi
  454086:	48 89 d7             	mov    %rdx,%rdi
  454089:	e8 b2 f3 ff ff       	callq  453440 <_ZNSolsEj@plt>
  45408e:	be a6 f1 46 00       	mov    $0x46f1a6,%esi
  454093:	48 89 c7             	mov    %rax,%rdi
  454096:	e8 b5 f2 ff ff       	callq  453350 <_ZStlsISt11char_traitsIcEERSt13basic_ostreamIcT_ES5_PKc@plt>
  45409b:	be 70 31 45 00       	mov    $0x453170,%esi
  4540a0:	48 89 c7             	mov    %rax,%rdi
  4540a3:	e8 f8 f2 ff ff       	callq  4533a0 <_ZNSolsEPFRSoS_E@plt>
  4540a8:	90                   	nop
  4540a9:	c9                   	leaveq 
  4540aa:	c3                   	retq   
  4540ab:	90                   	nop

00000000004540ac <_ZN2C25Chap25test9Ev>:
  4540ac:	55                   	push   %rbp
  4540ad:	48 89 e5             	mov    %rsp,%rbp
  4540b0:	53                   	push   %rbx
  4540b1:	48 83 ec 68          	sub    $0x68,%rsp
  4540b5:	48 89 7d 98          	mov    %rdi,-0x68(%rbp)
  4540b9:	48 8d 45 c0          	lea    -0x40(%rbp),%rax
  4540bd:	48 89 c7             	mov    %rax,%rdi
  4540c0:	e8 81 06 00 00       	callq  454746 <_ZNSt6vectorISt6threadSaIS0_EEC1Ev>
  4540c5:	c7 45 bc 00 00 00 00 	movl   $0x0,-0x44(%rbp)
  4540cc:	8b 45 bc             	mov    -0x44(%rbp),%eax
  4540cf:	83 f8 13             	cmp    $0x13,%eax
  4540d2:	77 20                	ja     4540f4 <_ZN2C25Chap25test9Ev+0x48>
  4540d4:	48 8d 55 bc          	lea    -0x44(%rbp),%rdx
  4540d8:	48 8d 45 c0          	lea    -0x40(%rbp),%rax
  4540dc:	be 64 40 45 00       	mov    $0x454064,%esi
  4540e1:	48 89 c7             	mov    %rax,%rdi
  4540e4:	e8 b9 0c 00 00       	callq  454da2 <_ZNSt6vectorISt6threadSaIS0_EE12emplace_backIJRFvjERjEEERS0_DpOT_>
  4540e9:	8b 45 bc             	mov    -0x44(%rbp),%eax
  4540ec:	83 c0 01             	add    $0x1,%eax
  4540ef:	89 45 bc             	mov    %eax,-0x44(%rbp)
  4540f2:	eb d8                	jmp    4540cc <_ZN2C25Chap25test9Ev+0x20>
  4540f4:	48 8d 45 c0          	lea    -0x40(%rbp),%rax
  4540f8:	48 89 45 e8          	mov    %rax,-0x18(%rbp)
  4540fc:	48 8b 45 e8          	mov    -0x18(%rbp),%rax
  454100:	48 89 c7             	mov    %rax,%rdi
  454103:	e8 66 0d 00 00       	callq  454e6e <_ZNSt6vectorISt6threadSaIS0_EE5beginEv>
  454108:	48 89 45 b0          	mov    %rax,-0x50(%rbp)
  45410c:	48 8b 45 e8          	mov    -0x18(%rbp),%rax
  454110:	48 89 c7             	mov    %rax,%rdi
  454113:	e8 7c 0d 00 00       	callq  454e94 <_ZNSt6vectorISt6threadSaIS0_EE3endEv>
  454118:	48 89 45 a8          	mov    %rax,-0x58(%rbp)
  45411c:	48 8d 55 a8          	lea    -0x58(%rbp),%rdx
  454120:	48 8d 45 b0          	lea    -0x50(%rbp),%rax
  454124:	48 89 d6             	mov    %rdx,%rsi
  454127:	48 89 c7             	mov    %rax,%rdi
  45412a:	e8 8e 0d 00 00       	callq  454ebd <_ZN9__gnu_cxxneIPSt6threadSt6vectorIS1_SaIS1_EEEEbRKNS_17__normal_iteratorIT_T0_EESB_>
  45412f:	84 c0                	test   %al,%al
  454131:	74 2a                	je     45415d <_ZN2C25Chap25test9Ev+0xb1>
  454133:	48 8d 45 b0          	lea    -0x50(%rbp),%rax
  454137:	48 89 c7             	mov    %rax,%rdi
  45413a:	e8 d9 0d 00 00       	callq  454f18 <_ZNK9__gnu_cxx17__normal_iteratorIPSt6threadSt6vectorIS1_SaIS1_EEEdeEv>
  45413f:	48 89 45 e0          	mov    %rax,-0x20(%rbp)
  454143:	48 8b 45 e0          	mov    -0x20(%rbp),%rax
  454147:	48 89 c7             	mov    %rax,%rdi
  45414a:	e8 11 f4 ff ff       	callq  453560 <_ZNSt6thread4joinEv@plt>
  45414f:	48 8d 45 b0          	lea    -0x50(%rbp),%rax
  454153:	48 89 c7             	mov    %rax,%rdi
  454156:	e8 9d 0d 00 00       	callq  454ef8 <_ZN9__gnu_cxx17__normal_iteratorIPSt6threadSt6vectorIS1_SaIS1_EEEppEv>
  45415b:	eb bf                	jmp    45411c <_ZN2C25Chap25test9Ev+0x70>
  45415d:	48 8d 45 c0          	lea    -0x40(%rbp),%rax
  454161:	48 89 c7             	mov    %rax,%rdi
  454164:	e8 f5 0b 00 00       	callq  454d5e <_ZNSt6vectorISt6threadSaIS0_EED1Ev>
  454169:	eb 1a                	jmp    454185 <_ZN2C25Chap25test9Ev+0xd9>
  45416b:	48 89 c3             	mov    %rax,%rbx
  45416e:	48 8d 45 c0          	lea    -0x40(%rbp),%rax
  454172:	48 89 c7             	mov    %rax,%rdi
  454175:	e8 e4 0b 00 00       	callq  454d5e <_ZNSt6vectorISt6threadSaIS0_EED1Ev>
  45417a:	48 89 d8             	mov    %rbx,%rax
  45417d:	48 89 c7             	mov    %rax,%rdi
  454180:	e8 1b f4 ff ff       	callq  4535a0 <_Unwind_Resume@plt>
  454185:	48 8b 5d f8          	mov    -0x8(%rbp),%rbx
  454189:	c9                   	leaveq 
  45418a:	c3                   	retq   

000000000045418b <_Z41__static_initialization_and_destruction_0ii>:
  45418b:	55                   	push   %rbp
  45418c:	48 89 e5             	mov    %rsp,%rbp
  45418f:	48 83 ec 10          	sub    $0x10,%rsp
  454193:	89 7d fc             	mov    %edi,-0x4(%rbp)
  454196:	89 75 f8             	mov    %esi,-0x8(%rbp)
  454199:	83 7d fc 01          	cmpl   $0x1,-0x4(%rbp)
  45419d:	75 27                	jne    4541c6 <_Z41__static_initialization_and_destruction_0ii+0x3b>
  45419f:	81 7d f8 ff ff 00 00 	cmpl   $0xffff,-0x8(%rbp)
  4541a6:	75 1e                	jne    4541c6 <_Z41__static_initialization_and_destruction_0ii+0x3b>
  4541a8:	bf 91 84 48 00       	mov    $0x488491,%edi
  4541ad:	e8 ee f2 ff ff       	callq  4534a0 <_ZNSt8ios_base4InitC1Ev@plt>
  4541b2:	ba 50 83 48 00       	mov    $0x488350,%edx
  4541b7:	be 91 84 48 00       	mov    $0x488491,%esi
  4541bc:	bf 70 36 45 00       	mov    $0x453670,%edi
  4541c1:	e8 1a f1 ff ff       	callq  4532e0 <__cxa_atexit@plt>
  4541c6:	90                   	nop
  4541c7:	c9                   	leaveq 
  4541c8:	c3                   	retq   

00000000004541c9 <_GLOBAL__sub_I__ZN2C212do_some_workEv>:
  4541c9:	55                   	push   %rbp
  4541ca:	48 89 e5             	mov    %rsp,%rbp
  4541cd:	be ff ff 00 00       	mov    $0xffff,%esi
  4541d2:	bf 01 00 00 00       	mov    $0x1,%edi
  4541d7:	e8 af ff ff ff       	callq  45418b <_Z41__static_initialization_and_destruction_0ii>
  4541dc:	5d                   	pop    %rbp
  4541dd:	c3                   	retq   

00000000004541de <_ZnwmPv>:
  4541de:	55                   	push   %rbp
  4541df:	48 89 e5             	mov    %rsp,%rbp
  4541e2:	48 89 7d f8          	mov    %rdi,-0x8(%rbp)
  4541e6:	48 89 75 f0          	mov    %rsi,-0x10(%rbp)
  4541ea:	48 8b 45 f0          	mov    -0x10(%rbp),%rax
  4541ee:	5d                   	pop    %rbp
  4541ef:	c3                   	retq   

00000000004541f0 <_ZdlPvS_>:
  4541f0:	55                   	push   %rbp
  4541f1:	48 89 e5             	mov    %rsp,%rbp
  4541f4:	48 89 7d f8          	mov    %rdi,-0x8(%rbp)
  4541f8:	48 89 75 f0          	mov    %rsi,-0x10(%rbp)
  4541fc:	90                   	nop
  4541fd:	5d                   	pop    %rbp
  4541fe:	c3                   	retq   

00000000004541ff <_ZL18__gthread_active_pv>:
  4541ff:	55                   	push   %rbp
  454200:	48 89 e5             	mov    %rsp,%rbp
  454203:	b8 01 00 00 00       	mov    $0x1,%eax
  454208:	ba 20 35 45 00       	mov    $0x453520,%edx
  45420d:	48 85 d2             	test   %rdx,%rdx
  454210:	75 05                	jne    454217 <_ZL18__gthread_active_pv+0x18>
  454212:	b8 00 00 00 00       	mov    $0x0,%eax
  454217:	0f b6 c0             	movzbl %al,%eax
  45421a:	5d                   	pop    %rbp
  45421b:	c3                   	retq   

000000000045421c <_ZL14__gthread_selfv>:
  45421c:	55                   	push   %rbp
  45421d:	48 89 e5             	mov    %rsp,%rbp
  454220:	e8 db f0 ff ff       	callq  453300 <pthread_self@plt>
  454225:	5d                   	pop    %rbp
  454226:	c3                   	retq   
  454227:	90                   	nop

0000000000454228 <_ZNSt6thread2idC1Ev>:
  454228:	55                   	push   %rbp
  454229:	48 89 e5             	mov    %rsp,%rbp
  45422c:	48 89 7d f8          	mov    %rdi,-0x8(%rbp)
  454230:	48 8b 45 f8          	mov    -0x8(%rbp),%rax
  454234:	48 c7 00 00 00 00 00 	movq   $0x0,(%rax)
  45423b:	90                   	nop
  45423c:	5d                   	pop    %rbp
  45423d:	c3                   	retq   

000000000045423e <_ZNSt6thread2idC1Em>:
  45423e:	55                   	push   %rbp
  45423f:	48 89 e5             	mov    %rsp,%rbp
  454242:	48 89 7d f8          	mov    %rdi,-0x8(%rbp)
  454246:	48 89 75 f0          	mov    %rsi,-0x10(%rbp)
  45424a:	48 8b 45 f8          	mov    -0x8(%rbp),%rax
  45424e:	48 8b 55 f0          	mov    -0x10(%rbp),%rdx
  454252:	48 89 10             	mov    %rdx,(%rax)
  454255:	90                   	nop
  454256:	5d                   	pop    %rbp
  454257:	c3                   	retq   

0000000000454258 <_ZNSt6threadD1Ev>:
  454258:	55                   	push   %rbp
  454259:	48 89 e5             	mov    %rsp,%rbp
  45425c:	48 83 ec 10          	sub    $0x10,%rsp
  454260:	48 89 7d f8          	mov    %rdi,-0x8(%rbp)
  454264:	48 8b 45 f8          	mov    -0x8(%rbp),%rax
  454268:	48 89 c7             	mov    %rax,%rdi
  45426b:	e8 a2 00 00 00       	callq  454312 <_ZNKSt6thread8joinableEv>
  454270:	84 c0                	test   %al,%al
  454272:	74 05                	je     454279 <_ZNSt6threadD1Ev+0x21>
  454274:	e8 47 ee ff ff       	callq  4530c0 <_ZSt9terminatev@plt>
  454279:	90                   	nop
  45427a:	c9                   	leaveq 
  45427b:	c3                   	retq   

000000000045427c <_ZNSt6threadC1EOS_>:
  45427c:	55                   	push   %rbp
  45427d:	48 89 e5             	mov    %rsp,%rbp
  454280:	48 83 ec 10          	sub    $0x10,%rsp
  454284:	48 89 7d f8          	mov    %rdi,-0x8(%rbp)
  454288:	48 89 75 f0          	mov    %rsi,-0x10(%rbp)
  45428c:	48 8b 45 f8          	mov    -0x8(%rbp),%rax
  454290:	48 89 c7             	mov    %rax,%rdi
  454293:	e8 90 ff ff ff       	callq  454228 <_ZNSt6thread2idC1Ev>
  454298:	48 8b 55 f0          	mov    -0x10(%rbp),%rdx
  45429c:	48 8b 45 f8          	mov    -0x8(%rbp),%rax
  4542a0:	48 89 d6             	mov    %rdx,%rsi
  4542a3:	48 89 c7             	mov    %rax,%rdi
  4542a6:	e8 41 00 00 00       	callq  4542ec <_ZNSt6thread4swapERS_>
  4542ab:	90                   	nop
  4542ac:	c9                   	leaveq 
  4542ad:	c3                   	retq   

00000000004542ae <_ZNSt6threadaSEOS_>:
  4542ae:	55                   	push   %rbp
  4542af:	48 89 e5             	mov    %rsp,%rbp
  4542b2:	48 83 ec 10          	sub    $0x10,%rsp
  4542b6:	48 89 7d f8          	mov    %rdi,-0x8(%rbp)
  4542ba:	48 89 75 f0          	mov    %rsi,-0x10(%rbp)
  4542be:	48 8b 45 f8          	mov    -0x8(%rbp),%rax
  4542c2:	48 89 c7             	mov    %rax,%rdi
  4542c5:	e8 48 00 00 00       	callq  454312 <_ZNKSt6thread8joinableEv>
  4542ca:	84 c0                	test   %al,%al
  4542cc:	74 05                	je     4542d3 <_ZNSt6threadaSEOS_+0x25>
  4542ce:	e8 ed ed ff ff       	callq  4530c0 <_ZSt9terminatev@plt>
  4542d3:	48 8b 55 f0          	mov    -0x10(%rbp),%rdx
  4542d7:	48 8b 45 f8          	mov    -0x8(%rbp),%rax
  4542db:	48 89 d6             	mov    %rdx,%rsi
  4542de:	48 89 c7             	mov    %rax,%rdi
  4542e1:	e8 06 00 00 00       	callq  4542ec <_ZNSt6thread4swapERS_>
  4542e6:	48 8b 45 f8          	mov    -0x8(%rbp),%rax
  4542ea:	c9                   	leaveq 
  4542eb:	c3                   	retq   

00000000004542ec <_ZNSt6thread4swapERS_>:
  4542ec:	55                   	push   %rbp
  4542ed:	48 89 e5             	mov    %rsp,%rbp
  4542f0:	48 83 ec 10          	sub    $0x10,%rsp
  4542f4:	48 89 7d f8          	mov    %rdi,-0x8(%rbp)
  4542f8:	48 89 75 f0          	mov    %rsi,-0x10(%rbp)
  4542fc:	48 8b 55 f0          	mov    -0x10(%rbp),%rdx
  454300:	48 8b 45 f8          	mov    -0x8(%rbp),%rax
  454304:	48 89 d6             	mov    %rdx,%rsi
  454307:	48 89 c7             	mov    %rax,%rdi
  45430a:	e8 52 04 00 00       	callq  454761 <_ZSt4swapINSt6thread2idEENSt9enable_ifIXsrSt6__and_IJSt6__not_ISt15__is_tuple_likeIT_EESt21is_move_constructibleIS6_ESt18is_move_assignableIS6_EEE5valueEvE4typeERS6_SG_>
  45430f:	90                   	nop
  454310:	c9                   	leaveq 
  454311:	c3                   	retq   

0000000000454312 <_ZNKSt6thread8joinableEv>:
  454312:	55                   	push   %rbp
  454313:	48 89 e5             	mov    %rsp,%rbp
  454316:	48 83 ec 20          	sub    $0x20,%rsp
  45431a:	48 89 7d e8          	mov    %rdi,-0x18(%rbp)
  45431e:	48 8d 45 f8          	lea    -0x8(%rbp),%rax
  454322:	48 89 c7             	mov    %rax,%rdi
  454325:	e8 fe fe ff ff       	callq  454228 <_ZNSt6thread2idC1Ev>
  45432a:	48 8b 45 f8          	mov    -0x8(%rbp),%rax
  45432e:	48 8b 55 e8          	mov    -0x18(%rbp),%rdx
  454332:	48 89 c6             	mov    %rax,%rsi
  454335:	48 8b 3a             	mov    (%rdx),%rdi
  454338:	e8 05 00 00 00       	callq  454342 <_ZSteqNSt6thread2idES0_>
  45433d:	83 f0 01             	xor    $0x1,%eax
  454340:	c9                   	leaveq 
  454341:	c3                   	retq   

0000000000454342 <_ZSteqNSt6thread2idES0_>:
  454342:	55                   	push   %rbp
  454343:	48 89 e5             	mov    %rsp,%rbp
  454346:	48 89 7d f8          	mov    %rdi,-0x8(%rbp)
  45434a:	48 89 75 f0          	mov    %rsi,-0x10(%rbp)
  45434e:	48 8b 55 f8          	mov    -0x8(%rbp),%rdx
  454352:	48 8b 45 f0          	mov    -0x10(%rbp),%rax
  454356:	48 39 c2             	cmp    %rax,%rdx
  454359:	0f 94 c0             	sete   %al
  45435c:	5d                   	pop    %rbp
  45435d:	c3                   	retq   

000000000045435e <_ZNSt11this_thread6get_idEv>:
  45435e:	55                   	push   %rbp
  45435f:	48 89 e5             	mov    %rsp,%rbp
  454362:	48 83 ec 10          	sub    $0x10,%rsp
  454366:	e8 94 fe ff ff       	callq  4541ff <_ZL18__gthread_active_pv>
  45436b:	85 c0                	test   %eax,%eax
  45436d:	0f 94 c0             	sete   %al
  454370:	84 c0                	test   %al,%al
  454372:	74 17                	je     45438b <_ZNSt11this_thread6get_idEv+0x2d>
  454374:	48 8d 45 f0          	lea    -0x10(%rbp),%rax
  454378:	be 01 00 00 00       	mov    $0x1,%esi
  45437d:	48 89 c7             	mov    %rax,%rdi
  454380:	e8 b9 fe ff ff       	callq  45423e <_ZNSt6thread2idC1Em>
  454385:	48 8b 45 f0          	mov    -0x10(%rbp),%rax
  454389:	eb 1b                	jmp    4543a6 <_ZNSt11this_thread6get_idEv+0x48>
  45438b:	e8 8c fe ff ff       	callq  45421c <_ZL14__gthread_selfv>
  454390:	48 89 c2             	mov    %rax,%rdx
  454393:	48 8d 45 f8          	lea    -0x8(%rbp),%rax
  454397:	48 89 d6             	mov    %rdx,%rsi
  45439a:	48 89 c7             	mov    %rax,%rdi
  45439d:	e8 9c fe ff ff       	callq  45423e <_ZNSt6thread2idC1Em>
  4543a2:	48 8b 45 f8          	mov    -0x8(%rbp),%rax
  4543a6:	c9                   	leaveq 
  4543a7:	c3                   	retq   

00000000004543a8 <_ZN2C215background_taskC1ERi>:
  4543a8:	55                   	push   %rbp
  4543a9:	48 89 e5             	mov    %rsp,%rbp
  4543ac:	48 83 ec 10          	sub    $0x10,%rsp
  4543b0:	48 89 7d f8          	mov    %rdi,-0x8(%rbp)
  4543b4:	48 89 75 f0          	mov    %rsi,-0x10(%rbp)
  4543b8:	48 8b 45 f8          	mov    -0x8(%rbp),%rax
  4543bc:	48 8b 55 f0          	mov    -0x10(%rbp),%rdx
  4543c0:	48 89 10             	mov    %rdx,(%rax)
  4543c3:	be 18 f0 46 00       	mov    $0x46f018,%esi
  4543c8:	bf 80 83 48 00       	mov    $0x488380,%edi
  4543cd:	e8 7e ef ff ff       	callq  453350 <_ZStlsISt11char_traitsIcEERSt13basic_ostreamIcT_ES5_PKc@plt>
  4543d2:	48 89 c2             	mov    %rax,%rdx
  4543d5:	48 8b 45 f8          	mov    -0x8(%rbp),%rax
  4543d9:	48 8b 00             	mov    (%rax),%rax
  4543dc:	8b 00                	mov    (%rax),%eax
  4543de:	89 c6                	mov    %eax,%esi
  4543e0:	48 89 d7             	mov    %rdx,%rdi
  4543e3:	e8 98 f1 ff ff       	callq  453580 <_ZNSolsEi@plt>
  4543e8:	be 70 31 45 00       	mov    $0x453170,%esi
  4543ed:	48 89 c7             	mov    %rax,%rdi
  4543f0:	e8 ab ef ff ff       	callq  4533a0 <_ZNSolsEPFRSoS_E@plt>
  4543f5:	90                   	nop
  4543f6:	c9                   	leaveq 
  4543f7:	c3                   	retq   

00000000004543f8 <_ZNK2C215background_taskclEv>:
  4543f8:	55                   	push   %rbp
  4543f9:	48 89 e5             	mov    %rsp,%rbp
  4543fc:	48 83 ec 10          	sub    $0x10,%rsp
  454400:	48 89 7d f8          	mov    %rdi,-0x8(%rbp)
  454404:	be 18 f0 46 00       	mov    $0x46f018,%esi
  454409:	bf 80 83 48 00       	mov    $0x488380,%edi
  45440e:	e8 3d ef ff ff       	callq  453350 <_ZStlsISt11char_traitsIcEERSt13basic_ostreamIcT_ES5_PKc@plt>
  454413:	48 89 c2             	mov    %rax,%rdx
  454416:	48 8b 45 f8          	mov    -0x8(%rbp),%rax
  45441a:	48 8b 00             	mov    (%rax),%rax
  45441d:	8b 00                	mov    (%rax),%eax
  45441f:	89 c6                	mov    %eax,%esi
  454421:	48 89 d7             	mov    %rdx,%rdi
  454424:	e8 57 f1 ff ff       	callq  453580 <_ZNSolsEi@plt>
  454429:	be 70 31 45 00       	mov    $0x453170,%esi
  45442e:	48 89 c7             	mov    %rax,%rdi
  454431:	e8 6a ef ff ff       	callq  4533a0 <_ZNSolsEPFRSoS_E@plt>
  454436:	48 8b 45 f8          	mov    -0x8(%rbp),%rax
  45443a:	48 89 c7             	mov    %rax,%rdi
  45443d:	e8 10 00 00 00       	callq  454452 <_ZNK2C215background_task8do_thingEv>
  454442:	48 8b 45 f8          	mov    -0x8(%rbp),%rax
  454446:	48 89 c7             	mov    %rax,%rdi
  454449:	e8 30 00 00 00       	callq  45447e <_ZNK2C215background_task5add_iEv>
  45444e:	90                   	nop
  45444f:	c9                   	leaveq 
  454450:	c3                   	retq   
  454451:	90                   	nop

0000000000454452 <_ZNK2C215background_task8do_thingEv>:
  454452:	55                   	push   %rbp
  454453:	48 89 e5             	mov    %rsp,%rbp
  454456:	48 83 ec 10          	sub    $0x10,%rsp
  45445a:	48 89 7d f8          	mov    %rdi,-0x8(%rbp)
  45445e:	be 1e f0 46 00       	mov    $0x46f01e,%esi
  454463:	bf 80 83 48 00       	mov    $0x488380,%edi
  454468:	e8 e3 ee ff ff       	callq  453350 <_ZStlsISt11char_traitsIcEERSt13basic_ostreamIcT_ES5_PKc@plt>
  45446d:	be 70 31 45 00       	mov    $0x453170,%esi
  454472:	48 89 c7             	mov    %rax,%rdi
  454475:	e8 26 ef ff ff       	callq  4533a0 <_ZNSolsEPFRSoS_E@plt>
  45447a:	90                   	nop
  45447b:	c9                   	leaveq 
  45447c:	c3                   	retq   
  45447d:	90                   	nop

000000000045447e <_ZNK2C215background_task5add_iEv>:
  45447e:	55                   	push   %rbp
  45447f:	48 89 e5             	mov    %rsp,%rbp
  454482:	48 83 ec 20          	sub    $0x20,%rsp
  454486:	48 89 7d e8          	mov    %rdi,-0x18(%rbp)
  45448a:	be 27 f0 46 00       	mov    $0x46f027,%esi
  45448f:	bf 80 83 48 00       	mov    $0x488380,%edi
  454494:	e8 b7 ee ff ff       	callq  453350 <_ZStlsISt11char_traitsIcEERSt13basic_ostreamIcT_ES5_PKc@plt>
  454499:	be 70 31 45 00       	mov    $0x453170,%esi
  45449e:	48 89 c7             	mov    %rax,%rdi
  4544a1:	e8 fa ee ff ff       	callq  4533a0 <_ZNSolsEPFRSoS_E@plt>
  4544a6:	c7 45 fc 00 00 00 00 	movl   $0x0,-0x4(%rbp)
  4544ad:	81 7d fc 9f 86 01 00 	cmpl   $0x1869f,-0x4(%rbp)
  4544b4:	7f 14                	jg     4544ca <_ZNK2C215background_task5add_iEv+0x4c>
  4544b6:	48 8b 45 e8          	mov    -0x18(%rbp),%rax
  4544ba:	48 8b 00             	mov    (%rax),%rax
  4544bd:	8b 10                	mov    (%rax),%edx
  4544bf:	83 c2 01             	add    $0x1,%edx
  4544c2:	89 10                	mov    %edx,(%rax)
  4544c4:	83 45 fc 01          	addl   $0x1,-0x4(%rbp)
  4544c8:	eb e3                	jmp    4544ad <_ZNK2C215background_task5add_iEv+0x2f>
  4544ca:	be 2d f0 46 00       	mov    $0x46f02d,%esi
  4544cf:	bf 80 83 48 00       	mov    $0x488380,%edi
  4544d4:	e8 77 ee ff ff       	callq  453350 <_ZStlsISt11char_traitsIcEERSt13basic_ostreamIcT_ES5_PKc@plt>
  4544d9:	48 89 c2             	mov    %rax,%rdx
  4544dc:	48 8b 45 e8          	mov    -0x18(%rbp),%rax
  4544e0:	48 8b 00             	mov    (%rax),%rax
  4544e3:	8b 00                	mov    (%rax),%eax
  4544e5:	89 c6                	mov    %eax,%esi
  4544e7:	48 89 d7             	mov    %rdx,%rdi
  4544ea:	e8 91 f0 ff ff       	callq  453580 <_ZNSolsEi@plt>
  4544ef:	be 70 31 45 00       	mov    $0x453170,%esi
  4544f4:	48 89 c7             	mov    %rax,%rdi
  4544f7:	e8 a4 ee ff ff       	callq  4533a0 <_ZNSolsEPFRSoS_E@plt>
  4544fc:	90                   	nop
  4544fd:	c9                   	leaveq 
  4544fe:	c3                   	retq   
  4544ff:	90                   	nop

0000000000454500 <_ZN2C212thread_guardC1ERSt6thread>:
  454500:	55                   	push   %rbp
  454501:	48 89 e5             	mov    %rsp,%rbp
  454504:	48 89 7d f8          	mov    %rdi,-0x8(%rbp)
  454508:	48 89 75 f0          	mov    %rsi,-0x10(%rbp)
  45450c:	48 8b 45 f8          	mov    -0x8(%rbp),%rax
  454510:	48 8b 55 f0          	mov    -0x10(%rbp),%rdx
  454514:	48 89 10             	mov    %rdx,(%rax)
  454517:	90                   	nop
  454518:	5d                   	pop    %rbp
  454519:	c3                   	retq   

000000000045451a <_ZN2C212thread_guardD1Ev>:
  45451a:	55                   	push   %rbp
  45451b:	48 89 e5             	mov    %rsp,%rbp
  45451e:	48 83 ec 10          	sub    $0x10,%rsp
  454522:	48 89 7d f8          	mov    %rdi,-0x8(%rbp)
  454526:	48 8b 45 f8          	mov    -0x8(%rbp),%rax
  45452a:	48 8b 00             	mov    (%rax),%rax
  45452d:	48 89 c7             	mov    %rax,%rdi
  454530:	e8 dd fd ff ff       	callq  454312 <_ZNKSt6thread8joinableEv>
  454535:	84 c0                	test   %al,%al
  454537:	74 2d                	je     454566 <_ZN2C212thread_guardD1Ev+0x4c>
  454539:	48 8b 45 f8          	mov    -0x8(%rbp),%rax
  45453d:	48 8b 00             	mov    (%rax),%rax
  454540:	48 89 c7             	mov    %rax,%rdi
  454543:	e8 18 f0 ff ff       	callq  453560 <_ZNSt6thread4joinEv@plt>
  454548:	be 3d f0 46 00       	mov    $0x46f03d,%esi
  45454d:	bf 80 83 48 00       	mov    $0x488380,%edi
  454552:	e8 f9 ed ff ff       	callq  453350 <_ZStlsISt11char_traitsIcEERSt13basic_ostreamIcT_ES5_PKc@plt>
  454557:	be 70 31 45 00       	mov    $0x453170,%esi
  45455c:	48 89 c7             	mov    %rax,%rdi
  45455f:	e8 3c ee ff ff       	callq  4533a0 <_ZNSolsEPFRSoS_E@plt>
  454564:	eb 1c                	jmp    454582 <_ZN2C212thread_guardD1Ev+0x68>
  454566:	be 52 f0 46 00       	mov    $0x46f052,%esi
  45456b:	bf 80 83 48 00       	mov    $0x488380,%edi
  454570:	e8 db ed ff ff       	callq  453350 <_ZStlsISt11char_traitsIcEERSt13basic_ostreamIcT_ES5_PKc@plt>
  454575:	be 70 31 45 00       	mov    $0x453170,%esi
  45457a:	48 89 c7             	mov    %rax,%rdi
  45457d:	e8 1e ee ff ff       	callq  4533a0 <_ZNSolsEPFRSoS_E@plt>
  454582:	90                   	nop
  454583:	c9                   	leaveq 
  454584:	c3                   	retq   
  454585:	90                   	nop

0000000000454586 <_ZN2C22X47do_workEv>:
  454586:	55                   	push   %rbp
  454587:	48 89 e5             	mov    %rsp,%rbp
  45458a:	48 83 ec 10          	sub    $0x10,%rsp
  45458e:	48 89 7d f8          	mov    %rdi,-0x8(%rbp)
  454592:	be ae f0 46 00       	mov    $0x46f0ae,%esi
  454597:	bf 80 83 48 00       	mov    $0x488380,%edi
  45459c:	e8 af ed ff ff       	callq  453350 <_ZStlsISt11char_traitsIcEERSt13basic_ostreamIcT_ES5_PKc@plt>
  4545a1:	be b1 f0 46 00       	mov    $0x46f0b1,%esi
  4545a6:	48 89 c7             	mov    %rax,%rdi
  4545a9:	e8 a2 ed ff ff       	callq  453350 <_ZStlsISt11char_traitsIcEERSt13basic_ostreamIcT_ES5_PKc@plt>
  4545ae:	be 70 31 45 00       	mov    $0x453170,%esi
  4545b3:	48 89 c7             	mov    %rax,%rdi
  4545b6:	e8 e5 ed ff ff       	callq  4533a0 <_ZNSolsEPFRSoS_E@plt>
  4545bb:	90                   	nop
  4545bc:	c9                   	leaveq 
  4545bd:	c3                   	retq   

00000000004545be <_ZN2C27big_objC1Ev>:
  4545be:	55                   	push   %rbp
  4545bf:	48 89 e5             	mov    %rsp,%rbp
  4545c2:	48 83 ec 10          	sub    $0x10,%rsp
  4545c6:	48 89 7d f8          	mov    %rdi,-0x8(%rbp)
  4545ca:	48 8b 45 f8          	mov    -0x8(%rbp),%rax
  4545ce:	48 c7 00 00 00 00 00 	movq   $0x0,(%rax)
  4545d5:	bf 04 00 00 00       	mov    $0x4,%edi
  4545da:	e8 81 ed ff ff       	callq  453360 <_Znwm@plt>
  4545df:	c7 00 03 00 00 00    	movl   $0x3,(%rax)
  4545e5:	48 8b 55 f8          	mov    -0x8(%rbp),%rdx
  4545e9:	48 89 02             	mov    %rax,(%rdx)
  4545ec:	90                   	nop
  4545ed:	c9                   	leaveq 
  4545ee:	c3                   	retq   
  4545ef:	90                   	nop

00000000004545f0 <_ZNSt6threadC1Ev>:
  4545f0:	55                   	push   %rbp
  4545f1:	48 89 e5             	mov    %rsp,%rbp
  4545f4:	48 83 ec 10          	sub    $0x10,%rsp
  4545f8:	48 89 7d f8          	mov    %rdi,-0x8(%rbp)
  4545fc:	48 8b 45 f8          	mov    -0x8(%rbp),%rax
  454600:	48 89 c7             	mov    %rax,%rdi
  454603:	e8 20 fc ff ff       	callq  454228 <_ZNSt6thread2idC1Ev>
  454608:	90                   	nop
  454609:	c9                   	leaveq 
  45460a:	c3                   	retq   
  45460b:	90                   	nop

000000000045460c <_ZN2C213scoped_threadC1ESt6thread>:
  45460c:	55                   	push   %rbp
  45460d:	48 89 e5             	mov    %rsp,%rbp
  454610:	41 54                	push   %r12
  454612:	53                   	push   %rbx
  454613:	48 83 ec 10          	sub    $0x10,%rsp
  454617:	48 89 7d e8          	mov    %rdi,-0x18(%rbp)
  45461b:	48 89 75 e0          	mov    %rsi,-0x20(%rbp)
  45461f:	48 8b 5d e8          	mov    -0x18(%rbp),%rbx
  454623:	48 8b 45 e0          	mov    -0x20(%rbp),%rax
  454627:	48 89 c7             	mov    %rax,%rdi
  45462a:	e8 07 06 00 00       	callq  454c36 <_ZSt4moveIRSt6threadEONSt16remove_referenceIT_E4typeEOS3_>
  45462f:	48 89 c6             	mov    %rax,%rsi
  454632:	48 89 df             	mov    %rbx,%rdi
  454635:	e8 42 fc ff ff       	callq  45427c <_ZNSt6threadC1EOS_>
  45463a:	be 77 f1 46 00       	mov    $0x46f177,%esi
  45463f:	bf 80 83 48 00       	mov    $0x488380,%edi
  454644:	e8 07 ed ff ff       	callq  453350 <_ZStlsISt11char_traitsIcEERSt13basic_ostreamIcT_ES5_PKc@plt>
  454649:	48 89 c3             	mov    %rax,%rbx
  45464c:	48 8b 45 e0          	mov    -0x20(%rbp),%rax
  454650:	48 89 c7             	mov    %rax,%rdi
  454653:	e8 ba fc ff ff       	callq  454312 <_ZNKSt6thread8joinableEv>
  454658:	0f b6 c0             	movzbl %al,%eax
  45465b:	89 c6                	mov    %eax,%esi
  45465d:	48 89 df             	mov    %rbx,%rdi
  454660:	e8 5b ef ff ff       	callq  4535c0 <_ZNSolsEb@plt>
  454665:	be 70 31 45 00       	mov    $0x453170,%esi
  45466a:	48 89 c7             	mov    %rax,%rdi
  45466d:	e8 2e ed ff ff       	callq  4533a0 <_ZNSolsEPFRSoS_E@plt>
  454672:	48 8b 45 e8          	mov    -0x18(%rbp),%rax
  454676:	48 89 c7             	mov    %rax,%rdi
  454679:	e8 94 fc ff ff       	callq  454312 <_ZNKSt6thread8joinableEv>
  45467e:	83 f0 01             	xor    $0x1,%eax
  454681:	84 c0                	test   %al,%al
  454683:	74 56                	je     4546db <_ZN2C213scoped_threadC1ESt6thread+0xcf>
  454685:	bf 10 00 00 00       	mov    $0x10,%edi
  45468a:	e8 f1 ea ff ff       	callq  453180 <__cxa_allocate_exception@plt>
  45468f:	48 89 c3             	mov    %rax,%rbx
  454692:	be 88 f1 46 00       	mov    $0x46f188,%esi
  454697:	48 89 df             	mov    %rbx,%rdi
  45469a:	e8 d1 ed ff ff       	callq  453470 <_ZNSt11logic_errorC1EPKc@plt>
  45469f:	ba 10 34 45 00       	mov    $0x453410,%edx
  4546a4:	be 68 7d 48 00       	mov    $0x487d68,%esi
  4546a9:	48 89 df             	mov    %rbx,%rdi
  4546ac:	e8 bf ee ff ff       	callq  453570 <__cxa_throw@plt>
  4546b1:	49 89 c4             	mov    %rax,%r12
  4546b4:	48 89 df             	mov    %rbx,%rdi
  4546b7:	e8 a4 eb ff ff       	callq  453260 <__cxa_free_exception@plt>
  4546bc:	4c 89 e3             	mov    %r12,%rbx
  4546bf:	eb 03                	jmp    4546c4 <_ZN2C213scoped_threadC1ESt6thread+0xb8>
  4546c1:	48 89 c3             	mov    %rax,%rbx
  4546c4:	48 8b 45 e8          	mov    -0x18(%rbp),%rax
  4546c8:	48 89 c7             	mov    %rax,%rdi
  4546cb:	e8 88 fb ff ff       	callq  454258 <_ZNSt6threadD1Ev>
  4546d0:	48 89 d8             	mov    %rbx,%rax
  4546d3:	48 89 c7             	mov    %rax,%rdi
  4546d6:	e8 c5 ee ff ff       	callq  4535a0 <_Unwind_Resume@plt>
  4546db:	90                   	nop
  4546dc:	48 83 c4 10          	add    $0x10,%rsp
  4546e0:	5b                   	pop    %rbx
  4546e1:	41 5c                	pop    %r12
  4546e3:	5d                   	pop    %rbp
  4546e4:	c3                   	retq   
  4546e5:	90                   	nop

00000000004546e6 <_ZN2C213scoped_threadD1Ev>:
  4546e6:	55                   	push   %rbp
  4546e7:	48 89 e5             	mov    %rsp,%rbp
  4546ea:	48 83 ec 10          	sub    $0x10,%rsp
  4546ee:	48 89 7d f8          	mov    %rdi,-0x8(%rbp)
  4546f2:	48 8b 45 f8          	mov    -0x8(%rbp),%rax
  4546f6:	48 89 c7             	mov    %rax,%rdi
  4546f9:	e8 62 ee ff ff       	callq  453560 <_ZNSt6thread4joinEv@plt>
  4546fe:	48 8b 45 f8          	mov    -0x8(%rbp),%rax
  454702:	48 89 c7             	mov    %rax,%rdi
  454705:	e8 4e fb ff ff       	callq  454258 <_ZNSt6threadD1Ev>
  45470a:	90                   	nop
  45470b:	c9                   	leaveq 
  45470c:	c3                   	retq   
  45470d:	90                   	nop

000000000045470e <_ZNSt12_Vector_baseISt6threadSaIS0_EE12_Vector_implD1Ev>:
  45470e:	55                   	push   %rbp
  45470f:	48 89 e5             	mov    %rsp,%rbp
  454712:	48 83 ec 10          	sub    $0x10,%rsp
  454716:	48 89 7d f8          	mov    %rdi,-0x8(%rbp)
  45471a:	48 8b 45 f8          	mov    -0x8(%rbp),%rax
  45471e:	48 89 c7             	mov    %rax,%rdi
  454721:	e8 ce 05 00 00       	callq  454cf4 <_ZNSaISt6threadED1Ev>
  454726:	90                   	nop
  454727:	c9                   	leaveq 
  454728:	c3                   	retq   
  454729:	90                   	nop

000000000045472a <_ZNSt12_Vector_baseISt6threadSaIS0_EEC1Ev>:
  45472a:	55                   	push   %rbp
  45472b:	48 89 e5             	mov    %rsp,%rbp
  45472e:	48 83 ec 10          	sub    $0x10,%rsp
  454732:	48 89 7d f8          	mov    %rdi,-0x8(%rbp)
  454736:	48 8b 45 f8          	mov    -0x8(%rbp),%rax
  45473a:	48 89 c7             	mov    %rax,%rdi
  45473d:	e8 8a 05 00 00       	callq  454ccc <_ZNSt12_Vector_baseISt6threadSaIS0_EE12_Vector_implC1Ev>
  454742:	90                   	nop
  454743:	c9                   	leaveq 
  454744:	c3                   	retq   
  454745:	90                   	nop

0000000000454746 <_ZNSt6vectorISt6threadSaIS0_EEC1Ev>:
  454746:	55                   	push   %rbp
  454747:	48 89 e5             	mov    %rsp,%rbp
  45474a:	48 83 ec 10          	sub    $0x10,%rsp
  45474e:	48 89 7d f8          	mov    %rdi,-0x8(%rbp)
  454752:	48 8b 45 f8          	mov    -0x8(%rbp),%rax
  454756:	48 89 c7             	mov    %rax,%rdi
  454759:	e8 cc ff ff ff       	callq  45472a <_ZNSt12_Vector_baseISt6threadSaIS0_EEC1Ev>
  45475e:	90                   	nop
  45475f:	c9                   	leaveq 
  454760:	c3                   	retq   

0000000000454761 <_ZSt4swapINSt6thread2idEENSt9enable_ifIXsrSt6__and_IJSt6__not_ISt15__is_tuple_likeIT_EESt21is_move_constructibleIS6_ESt18is_move_assignableIS6_EEE5valueEvE4typeERS6_SG_>:
  454761:	55                   	push   %rbp
  454762:	48 89 e5             	mov    %rsp,%rbp
  454765:	48 83 ec 20          	sub    $0x20,%rsp
  454769:	48 89 7d e8          	mov    %rdi,-0x18(%rbp)
  45476d:	48 89 75 e0          	mov    %rsi,-0x20(%rbp)
  454771:	48 8b 45 e8          	mov    -0x18(%rbp),%rax
  454775:	48 89 c7             	mov    %rax,%rdi
  454778:	e8 ac 07 00 00       	callq  454f29 <_ZSt4moveIRNSt6thread2idEEONSt16remove_referenceIT_E4typeEOS4_>
  45477d:	48 8b 00             	mov    (%rax),%rax
  454780:	48 89 45 f8          	mov    %rax,-0x8(%rbp)
  454784:	48 8b 45 e0          	mov    -0x20(%rbp),%rax
  454788:	48 89 c7             	mov    %rax,%rdi
  45478b:	e8 99 07 00 00       	callq  454f29 <_ZSt4moveIRNSt6thread2idEEONSt16remove_referenceIT_E4typeEOS4_>
  454790:	48 8b 55 e8          	mov    -0x18(%rbp),%rdx
  454794:	48 8b 00             	mov    (%rax),%rax
  454797:	48 89 02             	mov    %rax,(%rdx)
  45479a:	48 8d 45 f8          	lea    -0x8(%rbp),%rax
  45479e:	48 89 c7             	mov    %rax,%rdi
  4547a1:	e8 83 07 00 00       	callq  454f29 <_ZSt4moveIRNSt6thread2idEEONSt16remove_referenceIT_E4typeEOS4_>
  4547a6:	48 8b 55 e0          	mov    -0x20(%rbp),%rdx
  4547aa:	48 8b 00             	mov    (%rax),%rax
  4547ad:	48 89 02             	mov    %rax,(%rdx)
  4547b0:	90                   	nop
  4547b1:	c9                   	leaveq 
  4547b2:	c3                   	retq   
  4547b3:	90                   	nop

00000000004547b4 <_ZNSt6threadC1IRFvvEJEvEEOT_DpOT0_>:
  4547b4:	55                   	push   %rbp
  4547b5:	48 89 e5             	mov    %rsp,%rbp
  4547b8:	53                   	push   %rbx
  4547b9:	48 83 ec 28          	sub    $0x28,%rsp
  4547bd:	48 89 7d d8          	mov    %rdi,-0x28(%rbp)
  4547c1:	48 89 75 d0          	mov    %rsi,-0x30(%rbp)
  4547c5:	48 8b 45 d8          	mov    -0x28(%rbp),%rax
  4547c9:	48 89 c7             	mov    %rax,%rdi
  4547cc:	e8 57 fa ff ff       	callq  454228 <_ZNSt6thread2idC1Ev>
  4547d1:	48 c7 45 e8 f0 31 45 	movq   $0x4531f0,-0x18(%rbp)
  4547d8:	00 
  4547d9:	48 8b 45 d0          	mov    -0x30(%rbp),%rax
  4547dd:	48 89 c7             	mov    %rax,%rdi
  4547e0:	e8 52 07 00 00       	callq  454f37 <_ZSt7forwardIRFvvEEOT_RNSt16remove_referenceIS2_E4typeE>
  4547e5:	48 89 c2             	mov    %rax,%rdx
  4547e8:	48 8d 45 e0          	lea    -0x20(%rbp),%rax
  4547ec:	48 89 d6             	mov    %rdx,%rsi
  4547ef:	48 89 c7             	mov    %rax,%rdi
  4547f2:	e8 4e 07 00 00       	callq  454f45 <_ZNSt6thread13_S_make_stateINS_8_InvokerISt5tupleIJPFvvEEEEEJRS3_EEESt10unique_ptrINS_6_StateESt14default_deleteIS9_EEDpOT0_>
  4547f7:	48 8b 55 e8          	mov    -0x18(%rbp),%rdx
  4547fb:	48 8d 4d e0          	lea    -0x20(%rbp),%rcx
  4547ff:	48 8b 45 d8          	mov    -0x28(%rbp),%rax
  454803:	48 89 ce             	mov    %rcx,%rsi
  454806:	48 89 c7             	mov    %rax,%rdi
  454809:	e8 02 eb ff ff       	callq  453310 <_ZNSt6thread15_M_start_threadESt10unique_ptrINS_6_StateESt14default_deleteIS1_EEPFvvE@plt>
  45480e:	48 8d 45 e0          	lea    -0x20(%rbp),%rax
  454812:	48 89 c7             	mov    %rax,%rdi
  454815:	e8 9c 07 00 00       	callq  454fb6 <_ZNSt10unique_ptrINSt6thread6_StateESt14default_deleteIS1_EED1Ev>
  45481a:	eb 1a                	jmp    454836 <_ZNSt6threadC1IRFvvEJEvEEOT_DpOT0_+0x82>
  45481c:	48 89 c3             	mov    %rax,%rbx
  45481f:	48 8d 45 e0          	lea    -0x20(%rbp),%rax
  454823:	48 89 c7             	mov    %rax,%rdi
  454826:	e8 8b 07 00 00       	callq  454fb6 <_ZNSt10unique_ptrINSt6thread6_StateESt14default_deleteIS1_EED1Ev>
  45482b:	48 89 d8             	mov    %rbx,%rax
  45482e:	48 89 c7             	mov    %rax,%rdi
  454831:	e8 6a ed ff ff       	callq  4535a0 <_Unwind_Resume@plt>
  454836:	48 8b 5d f8          	mov    -0x8(%rbp),%rbx
  45483a:	c9                   	leaveq 
  45483b:	c3                   	retq   

000000000045483c <_ZNSt6threadC1IRN2C215background_taskEJEvEEOT_DpOT0_>:
  45483c:	55                   	push   %rbp
  45483d:	48 89 e5             	mov    %rsp,%rbp
  454840:	53                   	push   %rbx
  454841:	48 83 ec 28          	sub    $0x28,%rsp
  454845:	48 89 7d d8          	mov    %rdi,-0x28(%rbp)
  454849:	48 89 75 d0          	mov    %rsi,-0x30(%rbp)
  45484d:	48 8b 45 d8          	mov    -0x28(%rbp),%rax
  454851:	48 89 c7             	mov    %rax,%rdi
  454854:	e8 cf f9 ff ff       	callq  454228 <_ZNSt6thread2idC1Ev>
  454859:	48 c7 45 e8 f0 31 45 	movq   $0x4531f0,-0x18(%rbp)
  454860:	00 
  454861:	48 8b 45 d0          	mov    -0x30(%rbp),%rax
  454865:	48 89 c7             	mov    %rax,%rdi
  454868:	e8 ad 07 00 00       	callq  45501a <_ZSt7forwardIRN2C215background_taskEEOT_RNSt16remove_referenceIS3_E4typeE>
  45486d:	48 89 c2             	mov    %rax,%rdx
  454870:	48 8d 45 e0          	lea    -0x20(%rbp),%rax
  454874:	48 89 d6             	mov    %rdx,%rsi
  454877:	48 89 c7             	mov    %rax,%rdi
  45487a:	e8 a9 07 00 00       	callq  455028 <_ZNSt6thread13_S_make_stateINS_8_InvokerISt5tupleIJN2C215background_taskEEEEEJRS4_EEESt10unique_ptrINS_6_StateESt14default_deleteIS9_EEDpOT0_>
  45487f:	48 8b 55 e8          	mov    -0x18(%rbp),%rdx
  454883:	48 8d 4d e0          	lea    -0x20(%rbp),%rcx
  454887:	48 8b 45 d8          	mov    -0x28(%rbp),%rax
  45488b:	48 89 ce             	mov    %rcx,%rsi
  45488e:	48 89 c7             	mov    %rax,%rdi
  454891:	e8 7a ea ff ff       	callq  453310 <_ZNSt6thread15_M_start_threadESt10unique_ptrINS_6_StateESt14default_deleteIS1_EEPFvvE@plt>
  454896:	48 8d 45 e0          	lea    -0x20(%rbp),%rax
  45489a:	48 89 c7             	mov    %rax,%rdi
  45489d:	e8 14 07 00 00       	callq  454fb6 <_ZNSt10unique_ptrINSt6thread6_StateESt14default_deleteIS1_EED1Ev>
  4548a2:	eb 1a                	jmp    4548be <_ZNSt6threadC1IRN2C215background_taskEJEvEEOT_DpOT0_+0x82>
  4548a4:	48 89 c3             	mov    %rax,%rbx
  4548a7:	48 8d 45 e0          	lea    -0x20(%rbp),%rax
  4548ab:	48 89 c7             	mov    %rax,%rdi
  4548ae:	e8 03 07 00 00       	callq  454fb6 <_ZNSt10unique_ptrINSt6thread6_StateESt14default_deleteIS1_EED1Ev>
  4548b3:	48 89 d8             	mov    %rbx,%rax
  4548b6:	48 89 c7             	mov    %rax,%rdi
  4548b9:	e8 e2 ec ff ff       	callq  4535a0 <_Unwind_Resume@plt>
  4548be:	48 8b 5d f8          	mov    -0x8(%rbp),%rbx
  4548c2:	c9                   	leaveq 
  4548c3:	c3                   	retq   

00000000004548c4 <_ZSt3refIiESt17reference_wrapperIT_ERS1_>:
  4548c4:	55                   	push   %rbp
  4548c5:	48 89 e5             	mov    %rsp,%rbp
  4548c8:	48 83 ec 20          	sub    $0x20,%rsp
  4548cc:	48 89 7d e8          	mov    %rdi,-0x18(%rbp)
  4548d0:	48 8b 55 e8          	mov    -0x18(%rbp),%rdx
  4548d4:	48 8d 45 f8          	lea    -0x8(%rbp),%rax
  4548d8:	48 89 d6             	mov    %rdx,%rsi
  4548db:	48 89 c7             	mov    %rax,%rdi
  4548de:	e8 b7 07 00 00       	callq  45509a <_ZNSt17reference_wrapperIiEC1IRivPiEEOT_>
  4548e3:	48 8b 45 f8          	mov    -0x8(%rbp),%rax
  4548e7:	c9                   	leaveq 
  4548e8:	c3                   	retq   
  4548e9:	90                   	nop

00000000004548ea <_ZNSt6threadC1IRFviRiEJS1_St17reference_wrapperIiEEvEEOT_DpOT0_>:
  4548ea:	55                   	push   %rbp
  4548eb:	48 89 e5             	mov    %rsp,%rbp
  4548ee:	41 54                	push   %r12
  4548f0:	53                   	push   %rbx
  4548f1:	48 83 ec 30          	sub    $0x30,%rsp
  4548f5:	48 89 7d d8          	mov    %rdi,-0x28(%rbp)
  4548f9:	48 89 75 d0          	mov    %rsi,-0x30(%rbp)
  4548fd:	48 89 55 c8          	mov    %rdx,-0x38(%rbp)
  454901:	48 89 4d c0          	mov    %rcx,-0x40(%rbp)
  454905:	48 8b 45 d8          	mov    -0x28(%rbp),%rax
  454909:	48 89 c7             	mov    %rax,%rdi
  45490c:	e8 17 f9 ff ff       	callq  454228 <_ZNSt6thread2idC1Ev>
  454911:	48 c7 45 e8 f0 31 45 	movq   $0x4531f0,-0x18(%rbp)
  454918:	00 
  454919:	48 8b 45 c0          	mov    -0x40(%rbp),%rax
  45491d:	48 89 c7             	mov    %rax,%rdi
  454920:	e8 bf 07 00 00       	callq  4550e4 <_ZSt7forwardISt17reference_wrapperIiEEOT_RNSt16remove_referenceIS2_E4typeE>
  454925:	49 89 c4             	mov    %rax,%r12
  454928:	48 8b 45 c8          	mov    -0x38(%rbp),%rax
  45492c:	48 89 c7             	mov    %rax,%rdi
  45492f:	e8 a2 07 00 00       	callq  4550d6 <_ZSt7forwardIRiEOT_RNSt16remove_referenceIS1_E4typeE>
  454934:	48 89 c3             	mov    %rax,%rbx
  454937:	48 8b 45 d0          	mov    -0x30(%rbp),%rax
  45493b:	48 89 c7             	mov    %rax,%rdi
  45493e:	e8 85 07 00 00       	callq  4550c8 <_ZSt7forwardIRFviRiEEOT_RNSt16remove_referenceIS3_E4typeE>
  454943:	48 89 c6             	mov    %rax,%rsi
  454946:	48 8d 45 e0          	lea    -0x20(%rbp),%rax
  45494a:	4c 89 e1             	mov    %r12,%rcx
  45494d:	48 89 da             	mov    %rbx,%rdx
  454950:	48 89 c7             	mov    %rax,%rdi
  454953:	e8 9a 07 00 00       	callq  4550f2 <_ZNSt6thread13_S_make_stateINS_8_InvokerISt5tupleIJPFviRiEiSt17reference_wrapperIiEEEEEJRS4_S3_S7_EEESt10unique_ptrINS_6_StateESt14default_deleteISC_EEDpOT0_>
  454958:	48 8b 55 e8          	mov    -0x18(%rbp),%rdx
  45495c:	48 8d 4d e0          	lea    -0x20(%rbp),%rcx
  454960:	48 8b 45 d8          	mov    -0x28(%rbp),%rax
  454964:	48 89 ce             	mov    %rcx,%rsi
  454967:	48 89 c7             	mov    %rax,%rdi
  45496a:	e8 a1 e9 ff ff       	callq  453310 <_ZNSt6thread15_M_start_threadESt10unique_ptrINS_6_StateESt14default_deleteIS1_EEPFvvE@plt>
  45496f:	48 8d 45 e0          	lea    -0x20(%rbp),%rax
  454973:	48 89 c7             	mov    %rax,%rdi
  454976:	e8 3b 06 00 00       	callq  454fb6 <_ZNSt10unique_ptrINSt6thread6_StateESt14default_deleteIS1_EED1Ev>
  45497b:	eb 1a                	jmp    454997 <_ZNSt6threadC1IRFviRiEJS1_St17reference_wrapperIiEEvEEOT_DpOT0_+0xad>
  45497d:	48 89 c3             	mov    %rax,%rbx
  454980:	48 8d 45 e0          	lea    -0x20(%rbp),%rax
  454984:	48 89 c7             	mov    %rax,%rdi
  454987:	e8 2a 06 00 00       	callq  454fb6 <_ZNSt10unique_ptrINSt6thread6_StateESt14default_deleteIS1_EED1Ev>
  45498c:	48 89 d8             	mov    %rbx,%rax
  45498f:	48 89 c7             	mov    %rax,%rdi
  454992:	e8 09 ec ff ff       	callq  4535a0 <_Unwind_Resume@plt>
  454997:	48 83 c4 30          	add    $0x30,%rsp
  45499b:	5b                   	pop    %rbx
  45499c:	41 5c                	pop    %r12
  45499e:	5d                   	pop    %rbp
  45499f:	c3                   	retq   

00000000004549a0 <_ZSt3refIN2C22X4EESt17reference_wrapperIT_ERS3_>:
  4549a0:	55                   	push   %rbp
  4549a1:	48 89 e5             	mov    %rsp,%rbp
  4549a4:	48 83 ec 20          	sub    $0x20,%rsp
  4549a8:	48 89 7d e8          	mov    %rdi,-0x18(%rbp)
  4549ac:	48 8b 55 e8          	mov    -0x18(%rbp),%rdx
  4549b0:	48 8d 45 f8          	lea    -0x8(%rbp),%rax
  4549b4:	48 89 d6             	mov    %rdx,%rsi
  4549b7:	48 89 c7             	mov    %rax,%rdi
  4549ba:	e8 d9 07 00 00       	callq  455198 <_ZNSt17reference_wrapperIN2C22X4EEC1IRS1_vPS1_EEOT_>
  4549bf:	48 8b 45 f8          	mov    -0x8(%rbp),%rax
  4549c3:	c9                   	leaveq 
  4549c4:	c3                   	retq   
  4549c5:	90                   	nop

00000000004549c6 <_ZNSt6threadC1IMN2C22X4EFvvEJSt17reference_wrapperIS2_EEvEEOT_DpOT0_>:
  4549c6:	55                   	push   %rbp
  4549c7:	48 89 e5             	mov    %rsp,%rbp
  4549ca:	53                   	push   %rbx
  4549cb:	48 83 ec 38          	sub    $0x38,%rsp
  4549cf:	48 89 7d d8          	mov    %rdi,-0x28(%rbp)
  4549d3:	48 89 75 d0          	mov    %rsi,-0x30(%rbp)
  4549d7:	48 89 55 c8          	mov    %rdx,-0x38(%rbp)
  4549db:	48 8b 45 d8          	mov    -0x28(%rbp),%rax
  4549df:	48 89 c7             	mov    %rax,%rdi
  4549e2:	e8 41 f8 ff ff       	callq  454228 <_ZNSt6thread2idC1Ev>
  4549e7:	48 c7 45 e8 f0 31 45 	movq   $0x4531f0,-0x18(%rbp)
  4549ee:	00 
  4549ef:	48 8b 45 c8          	mov    -0x38(%rbp),%rax
  4549f3:	48 89 c7             	mov    %rax,%rdi
  4549f6:	e8 d9 07 00 00       	callq  4551d4 <_ZSt7forwardISt17reference_wrapperIN2C22X4EEEOT_RNSt16remove_referenceIS4_E4typeE>
  4549fb:	48 89 c3             	mov    %rax,%rbx
  4549fe:	48 8b 45 d0          	mov    -0x30(%rbp),%rax
  454a02:	48 89 c7             	mov    %rax,%rdi
  454a05:	e8 bc 07 00 00       	callq  4551c6 <_ZSt7forwardIMN2C22X4EFvvEEOT_RNSt16remove_referenceIS4_E4typeE>
  454a0a:	48 89 c1             	mov    %rax,%rcx
  454a0d:	48 8d 45 e0          	lea    -0x20(%rbp),%rax
  454a11:	48 89 da             	mov    %rbx,%rdx
  454a14:	48 89 ce             	mov    %rcx,%rsi
  454a17:	48 89 c7             	mov    %rax,%rdi
  454a1a:	e8 c3 07 00 00       	callq  4551e2 <_ZNSt6thread13_S_make_stateINS_8_InvokerISt5tupleIJMN2C22X4EFvvESt17reference_wrapperIS4_EEEEEJS6_S8_EEESt10unique_ptrINS_6_StateESt14default_deleteISC_EEDpOT0_>
  454a1f:	48 8b 55 e8          	mov    -0x18(%rbp),%rdx
  454a23:	48 8d 4d e0          	lea    -0x20(%rbp),%rcx
  454a27:	48 8b 45 d8          	mov    -0x28(%rbp),%rax
  454a2b:	48 89 ce             	mov    %rcx,%rsi
  454a2e:	48 89 c7             	mov    %rax,%rdi
  454a31:	e8 da e8 ff ff       	callq  453310 <_ZNSt6thread15_M_start_threadESt10unique_ptrINS_6_StateESt14default_deleteIS1_EEPFvvE@plt>
  454a36:	48 8d 45 e0          	lea    -0x20(%rbp),%rax
  454a3a:	48 89 c7             	mov    %rax,%rdi
  454a3d:	e8 74 05 00 00       	callq  454fb6 <_ZNSt10unique_ptrINSt6thread6_StateESt14default_deleteIS1_EED1Ev>
  454a42:	eb 1a                	jmp    454a5e <_ZNSt6threadC1IMN2C22X4EFvvEJSt17reference_wrapperIS2_EEvEEOT_DpOT0_+0x98>
  454a44:	48 89 c3             	mov    %rax,%rbx
  454a47:	48 8d 45 e0          	lea    -0x20(%rbp),%rax
  454a4b:	48 89 c7             	mov    %rax,%rdi
  454a4e:	e8 63 05 00 00       	callq  454fb6 <_ZNSt10unique_ptrINSt6thread6_StateESt14default_deleteIS1_EED1Ev>
  454a53:	48 89 d8             	mov    %rbx,%rax
  454a56:	48 89 c7             	mov    %rax,%rdi
  454a59:	e8 42 eb ff ff       	callq  4535a0 <_Unwind_Resume@plt>
  454a5e:	48 8b 5d f8          	mov    -0x8(%rbp),%rbx
  454a62:	c9                   	leaveq 
  454a63:	c3                   	retq   

0000000000454a64 <_ZNKSt10unique_ptrIN2C27big_objESt14default_deleteIS1_EEptEv>:
  454a64:	55                   	push   %rbp
  454a65:	48 89 e5             	mov    %rsp,%rbp
  454a68:	48 83 ec 10          	sub    $0x10,%rsp
  454a6c:	48 89 7d f8          	mov    %rdi,-0x8(%rbp)
  454a70:	48 8b 45 f8          	mov    -0x8(%rbp),%rax
  454a74:	48 89 c7             	mov    %rax,%rdi
  454a77:	e8 f2 07 00 00       	callq  45526e <_ZNKSt10unique_ptrIN2C27big_objESt14default_deleteIS1_EE3getEv>
  454a7c:	c9                   	leaveq 
  454a7d:	c3                   	retq   

0000000000454a7e <_ZNSt15__uniq_ptr_dataIN2C27big_objESt14default_deleteIS1_ELb1ELb1EECI1St15__uniq_ptr_implIS1_S3_EEPS1_>:
  454a7e:	55                   	push   %rbp
  454a7f:	48 89 e5             	mov    %rsp,%rbp
  454a82:	48 83 ec 10          	sub    $0x10,%rsp
  454a86:	48 89 7d f8          	mov    %rdi,-0x8(%rbp)
  454a8a:	48 89 75 f0          	mov    %rsi,-0x10(%rbp)
  454a8e:	48 8b 45 f8          	mov    -0x8(%rbp),%rax
  454a92:	48 8b 55 f0          	mov    -0x10(%rbp),%rdx
  454a96:	48 89 d6             	mov    %rdx,%rsi
  454a99:	48 89 c7             	mov    %rax,%rdi
  454a9c:	e8 e7 07 00 00       	callq  455288 <_ZNSt15__uniq_ptr_implIN2C27big_objESt14default_deleteIS1_EEC1EPS1_>
  454aa1:	90                   	nop
  454aa2:	c9                   	leaveq 
  454aa3:	c3                   	retq   

0000000000454aa4 <_ZNSt10unique_ptrIN2C27big_objESt14default_deleteIS1_EEC1IS3_vEEPS1_>:
  454aa4:	55                   	push   %rbp
  454aa5:	48 89 e5             	mov    %rsp,%rbp
  454aa8:	48 83 ec 10          	sub    $0x10,%rsp
  454aac:	48 89 7d f8          	mov    %rdi,-0x8(%rbp)
  454ab0:	48 89 75 f0          	mov    %rsi,-0x10(%rbp)
  454ab4:	48 8b 45 f8          	mov    -0x8(%rbp),%rax
  454ab8:	48 8b 55 f0          	mov    -0x10(%rbp),%rdx
  454abc:	48 89 d6             	mov    %rdx,%rsi
  454abf:	48 89 c7             	mov    %rax,%rdi
  454ac2:	e8 b7 ff ff ff       	callq  454a7e <_ZNSt15__uniq_ptr_dataIN2C27big_objESt14default_deleteIS1_ELb1ELb1EECI1St15__uniq_ptr_implIS1_S3_EEPS1_>
  454ac7:	90                   	nop
  454ac8:	c9                   	leaveq 
  454ac9:	c3                   	retq   

0000000000454aca <_ZNSt10unique_ptrIN2C27big_objESt14default_deleteIS1_EED1Ev>:
  454aca:	55                   	push   %rbp
  454acb:	48 89 e5             	mov    %rsp,%rbp
  454ace:	53                   	push   %rbx
  454acf:	48 83 ec 28          	sub    $0x28,%rsp
  454ad3:	48 89 7d d8          	mov    %rdi,-0x28(%rbp)
  454ad7:	48 8b 45 d8          	mov    -0x28(%rbp),%rax
  454adb:	48 89 c7             	mov    %rax,%rdi
  454ade:	e8 dd 07 00 00       	callq  4552c0 <_ZNSt15__uniq_ptr_implIN2C27big_objESt14default_deleteIS1_EE6_M_ptrEv>
  454ae3:	48 89 45 e8          	mov    %rax,-0x18(%rbp)
  454ae7:	48 8b 45 e8          	mov    -0x18(%rbp),%rax
  454aeb:	48 8b 00             	mov    (%rax),%rax
  454aee:	48 85 c0             	test   %rax,%rax
  454af1:	74 29                	je     454b1c <_ZNSt10unique_ptrIN2C27big_objESt14default_deleteIS1_EED1Ev+0x52>
  454af3:	48 8b 45 d8          	mov    -0x28(%rbp),%rax
  454af7:	48 89 c7             	mov    %rax,%rdi
  454afa:	e8 db 07 00 00       	callq  4552da <_ZNSt10unique_ptrIN2C27big_objESt14default_deleteIS1_EE11get_deleterEv>
  454aff:	48 89 c3             	mov    %rax,%rbx
  454b02:	48 8b 45 e8          	mov    -0x18(%rbp),%rax
  454b06:	48 89 c7             	mov    %rax,%rdi
  454b09:	e8 e6 07 00 00       	callq  4552f4 <_ZSt4moveIRPN2C27big_objEEONSt16remove_referenceIT_E4typeEOS5_>
  454b0e:	48 8b 00             	mov    (%rax),%rax
  454b11:	48 89 c6             	mov    %rax,%rsi
  454b14:	48 89 df             	mov    %rbx,%rdi
  454b17:	e8 e6 07 00 00       	callq  455302 <_ZNKSt14default_deleteIN2C27big_objEEclEPS1_>
  454b1c:	48 8b 45 e8          	mov    -0x18(%rbp),%rax
  454b20:	48 c7 00 00 00 00 00 	movq   $0x0,(%rax)
  454b27:	90                   	nop
  454b28:	48 8b 5d f8          	mov    -0x8(%rbp),%rbx
  454b2c:	c9                   	leaveq 
  454b2d:	c3                   	retq   

0000000000454b2e <_ZSt4moveIRSt10unique_ptrIN2C27big_objESt14default_deleteIS2_EEEONSt16remove_referenceIT_E4typeEOS8_>:
  454b2e:	55                   	push   %rbp
  454b2f:	48 89 e5             	mov    %rsp,%rbp
  454b32:	48 89 7d f8          	mov    %rdi,-0x8(%rbp)
  454b36:	48 8b 45 f8          	mov    -0x8(%rbp),%rax
  454b3a:	5d                   	pop    %rbp
  454b3b:	c3                   	retq   

0000000000454b3c <_ZNSt6threadC1IRFvSt10unique_ptrIN2C27big_objESt14default_deleteIS3_EEEJS6_EvEEOT_DpOT0_>:
  454b3c:	55                   	push   %rbp
  454b3d:	48 89 e5             	mov    %rsp,%rbp
  454b40:	53                   	push   %rbx
  454b41:	48 83 ec 38          	sub    $0x38,%rsp
  454b45:	48 89 7d d8          	mov    %rdi,-0x28(%rbp)
  454b49:	48 89 75 d0          	mov    %rsi,-0x30(%rbp)
  454b4d:	48 89 55 c8          	mov    %rdx,-0x38(%rbp)
  454b51:	48 8b 45 d8          	mov    -0x28(%rbp),%rax
  454b55:	48 89 c7             	mov    %rax,%rdi
  454b58:	e8 cb f6 ff ff       	callq  454228 <_ZNSt6thread2idC1Ev>
  454b5d:	48 c7 45 e8 f0 31 45 	movq   $0x4531f0,-0x18(%rbp)
  454b64:	00 
  454b65:	48 8b 45 c8          	mov    -0x38(%rbp),%rax
  454b69:	48 89 c7             	mov    %rax,%rdi
  454b6c:	e8 c8 07 00 00       	callq  455339 <_ZSt7forwardISt10unique_ptrIN2C27big_objESt14default_deleteIS2_EEEOT_RNSt16remove_referenceIS6_E4typeE>
  454b71:	48 89 c3             	mov    %rax,%rbx
  454b74:	48 8b 45 d0          	mov    -0x30(%rbp),%rax
  454b78:	48 89 c7             	mov    %rax,%rdi
  454b7b:	e8 ab 07 00 00       	callq  45532b <_ZSt7forwardIRFvSt10unique_ptrIN2C27big_objESt14default_deleteIS2_EEEEOT_RNSt16remove_referenceIS8_E4typeE>
  454b80:	48 89 c1             	mov    %rax,%rcx
  454b83:	48 8d 45 e0          	lea    -0x20(%rbp),%rax
  454b87:	48 89 da             	mov    %rbx,%rdx
  454b8a:	48 89 ce             	mov    %rcx,%rsi
  454b8d:	48 89 c7             	mov    %rax,%rdi
  454b90:	e8 b2 07 00 00       	callq  455347 <_ZNSt6thread13_S_make_stateINS_8_InvokerISt5tupleIJPFvSt10unique_ptrIN2C27big_objESt14default_deleteIS5_EEES8_EEEEJRS9_S8_EEES3_INS_6_StateES6_ISE_EEDpOT0_>
  454b95:	48 8b 55 e8          	mov    -0x18(%rbp),%rdx
  454b99:	48 8d 4d e0          	lea    -0x20(%rbp),%rcx
  454b9d:	48 8b 45 d8          	mov    -0x28(%rbp),%rax
  454ba1:	48 89 ce             	mov    %rcx,%rsi
  454ba4:	48 89 c7             	mov    %rax,%rdi
  454ba7:	e8 64 e7 ff ff       	callq  453310 <_ZNSt6thread15_M_start_threadESt10unique_ptrINS_6_StateESt14default_deleteIS1_EEPFvvE@plt>
  454bac:	48 8d 45 e0          	lea    -0x20(%rbp),%rax
  454bb0:	48 89 c7             	mov    %rax,%rdi
  454bb3:	e8 fe 03 00 00       	callq  454fb6 <_ZNSt10unique_ptrINSt6thread6_StateESt14default_deleteIS1_EED1Ev>
  454bb8:	eb 1a                	jmp    454bd4 <_ZNSt6threadC1IRFvSt10unique_ptrIN2C27big_objESt14default_deleteIS3_EEEJS6_EvEEOT_DpOT0_+0x98>
  454bba:	48 89 c3             	mov    %rax,%rbx
  454bbd:	48 8d 45 e0          	lea    -0x20(%rbp),%rax
  454bc1:	48 89 c7             	mov    %rax,%rdi
  454bc4:	e8 ed 03 00 00       	callq  454fb6 <_ZNSt10unique_ptrINSt6thread6_StateESt14default_deleteIS1_EED1Ev>
  454bc9:	48 89 d8             	mov    %rbx,%rax
  454bcc:	48 89 c7             	mov    %rax,%rdi
  454bcf:	e8 cc e9 ff ff       	callq  4535a0 <_Unwind_Resume@plt>
  454bd4:	48 8b 5d f8          	mov    -0x8(%rbp),%rbx
  454bd8:	c9                   	leaveq 
  454bd9:	c3                   	retq   

0000000000454bda <_ZStlsIcSt11char_traitsIcEERSt13basic_ostreamIT_T0_ES6_NSt6thread2idE>:
  454bda:	55                   	push   %rbp
  454bdb:	48 89 e5             	mov    %rsp,%rbp
  454bde:	48 83 ec 20          	sub    $0x20,%rsp
  454be2:	48 89 7d e8          	mov    %rdi,-0x18(%rbp)
  454be6:	48 89 75 e0          	mov    %rsi,-0x20(%rbp)
  454bea:	48 8d 45 f8          	lea    -0x8(%rbp),%rax
  454bee:	48 89 c7             	mov    %rax,%rdi
  454bf1:	e8 32 f6 ff ff       	callq  454228 <_ZNSt6thread2idC1Ev>
  454bf6:	48 8b 55 f8          	mov    -0x8(%rbp),%rdx
  454bfa:	48 8b 45 e0          	mov    -0x20(%rbp),%rax
  454bfe:	48 89 d6             	mov    %rdx,%rsi
  454c01:	48 89 c7             	mov    %rax,%rdi
  454c04:	e8 39 f7 ff ff       	callq  454342 <_ZSteqNSt6thread2idES0_>
  454c09:	84 c0                	test   %al,%al
  454c0b:	74 13                	je     454c20 <_ZStlsIcSt11char_traitsIcEERSt13basic_ostreamIT_T0_ES6_NSt6thread2idE+0x46>
  454c0d:	48 8b 45 e8          	mov    -0x18(%rbp),%rax
  454c11:	be b8 f1 46 00       	mov    $0x46f1b8,%esi
  454c16:	48 89 c7             	mov    %rax,%rdi
  454c19:	e8 32 e7 ff ff       	callq  453350 <_ZStlsISt11char_traitsIcEERSt13basic_ostreamIcT_ES5_PKc@plt>
  454c1e:	eb 14                	jmp    454c34 <_ZStlsIcSt11char_traitsIcEERSt13basic_ostreamIT_T0_ES6_NSt6thread2idE+0x5a>
  454c20:	48 8b 55 e0          	mov    -0x20(%rbp),%rdx
  454c24:	48 8b 45 e8          	mov    -0x18(%rbp),%rax
  454c28:	48 89 d6             	mov    %rdx,%rsi
  454c2b:	48 89 c7             	mov    %rax,%rdi
  454c2e:	e8 6d e4 ff ff       	callq  4530a0 <_ZNSolsEm@plt>
  454c33:	90                   	nop
  454c34:	c9                   	leaveq 
  454c35:	c3                   	retq   

0000000000454c36 <_ZSt4moveIRSt6threadEONSt16remove_referenceIT_E4typeEOS3_>:
  454c36:	55                   	push   %rbp
  454c37:	48 89 e5             	mov    %rsp,%rbp
  454c3a:	48 89 7d f8          	mov    %rdi,-0x8(%rbp)
  454c3e:	48 8b 45 f8          	mov    -0x8(%rbp),%rax
  454c42:	5d                   	pop    %rbp
  454c43:	c3                   	retq   

0000000000454c44 <_ZNSt6threadC1IN2C215background_taskEJEvEEOT_DpOT0_>:
  454c44:	55                   	push   %rbp
  454c45:	48 89 e5             	mov    %rsp,%rbp
  454c48:	53                   	push   %rbx
  454c49:	48 83 ec 28          	sub    $0x28,%rsp
  454c4d:	48 89 7d d8          	mov    %rdi,-0x28(%rbp)
  454c51:	48 89 75 d0          	mov    %rsi,-0x30(%rbp)
  454c55:	48 8b 45 d8          	mov    -0x28(%rbp),%rax
  454c59:	48 89 c7             	mov    %rax,%rdi
  454c5c:	e8 c7 f5 ff ff       	callq  454228 <_ZNSt6thread2idC1Ev>
  454c61:	48 c7 45 e8 f0 31 45 	movq   $0x4531f0,-0x18(%rbp)
  454c68:	00 
  454c69:	48 8b 45 d0          	mov    -0x30(%rbp),%rax
  454c6d:	48 89 c7             	mov    %rax,%rdi
  454c70:	e8 5e 07 00 00       	callq  4553d3 <_ZSt7forwardIN2C215background_taskEEOT_RNSt16remove_referenceIS2_E4typeE>
  454c75:	48 89 c2             	mov    %rax,%rdx
  454c78:	48 8d 45 e0          	lea    -0x20(%rbp),%rax
  454c7c:	48 89 d6             	mov    %rdx,%rsi
  454c7f:	48 89 c7             	mov    %rax,%rdi
  454c82:	e8 5a 07 00 00       	callq  4553e1 <_ZNSt6thread13_S_make_stateINS_8_InvokerISt5tupleIJN2C215background_taskEEEEEJS4_EEESt10unique_ptrINS_6_StateESt14default_deleteIS8_EEDpOT0_>
  454c87:	48 8b 55 e8          	mov    -0x18(%rbp),%rdx
  454c8b:	48 8d 4d e0          	lea    -0x20(%rbp),%rcx
  454c8f:	48 8b 45 d8          	mov    -0x28(%rbp),%rax
  454c93:	48 89 ce             	mov    %rcx,%rsi
  454c96:	48 89 c7             	mov    %rax,%rdi
  454c99:	e8 72 e6 ff ff       	callq  453310 <_ZNSt6thread15_M_start_threadESt10unique_ptrINS_6_StateESt14default_deleteIS1_EEPFvvE@plt>
  454c9e:	48 8d 45 e0          	lea    -0x20(%rbp),%rax
  454ca2:	48 89 c7             	mov    %rax,%rdi
  454ca5:	e8 0c 03 00 00       	callq  454fb6 <_ZNSt10unique_ptrINSt6thread6_StateESt14default_deleteIS1_EED1Ev>
  454caa:	eb 1a                	jmp    454cc6 <_ZNSt6threadC1IN2C215background_taskEJEvEEOT_DpOT0_+0x82>
  454cac:	48 89 c3             	mov    %rax,%rbx
  454caf:	48 8d 45 e0          	lea    -0x20(%rbp),%rax
  454cb3:	48 89 c7             	mov    %rax,%rdi
  454cb6:	e8 fb 02 00 00       	callq  454fb6 <_ZNSt10unique_ptrINSt6thread6_StateESt14default_deleteIS1_EED1Ev>
  454cbb:	48 89 d8             	mov    %rbx,%rax
  454cbe:	48 89 c7             	mov    %rax,%rdi
  454cc1:	e8 da e8 ff ff       	callq  4535a0 <_Unwind_Resume@plt>
  454cc6:	48 8b 5d f8          	mov    -0x8(%rbp),%rbx
  454cca:	c9                   	leaveq 
  454ccb:	c3                   	retq   

0000000000454ccc <_ZNSt12_Vector_baseISt6threadSaIS0_EE12_Vector_implC1Ev>:
  454ccc:	55                   	push   %rbp
  454ccd:	48 89 e5             	mov    %rsp,%rbp
  454cd0:	48 83 ec 10          	sub    $0x10,%rsp
  454cd4:	48 89 7d f8          	mov    %rdi,-0x8(%rbp)
  454cd8:	48 8b 45 f8          	mov    -0x8(%rbp),%rax
  454cdc:	48 89 c7             	mov    %rax,%rdi
  454cdf:	e8 6e 07 00 00       	callq  455452 <_ZNSaISt6threadEC1Ev>
  454ce4:	48 8b 45 f8          	mov    -0x8(%rbp),%rax
  454ce8:	48 89 c7             	mov    %rax,%rdi
  454ceb:	e8 7e 07 00 00       	callq  45546e <_ZNSt12_Vector_baseISt6threadSaIS0_EE17_Vector_impl_dataC1Ev>
  454cf0:	90                   	nop
  454cf1:	c9                   	leaveq 
  454cf2:	c3                   	retq   
  454cf3:	90                   	nop

0000000000454cf4 <_ZNSaISt6threadED1Ev>:
  454cf4:	55                   	push   %rbp
  454cf5:	48 89 e5             	mov    %rsp,%rbp
  454cf8:	48 83 ec 10          	sub    $0x10,%rsp
  454cfc:	48 89 7d f8          	mov    %rdi,-0x8(%rbp)
  454d00:	48 8b 45 f8          	mov    -0x8(%rbp),%rax
  454d04:	48 89 c7             	mov    %rax,%rdi
  454d07:	e8 90 07 00 00       	callq  45549c <_ZN9__gnu_cxx13new_allocatorISt6threadED1Ev>
  454d0c:	90                   	nop
  454d0d:	c9                   	leaveq 
  454d0e:	c3                   	retq   
  454d0f:	90                   	nop

0000000000454d10 <_ZNSt12_Vector_baseISt6threadSaIS0_EED1Ev>:
  454d10:	55                   	push   %rbp
  454d11:	48 89 e5             	mov    %rsp,%rbp
  454d14:	48 83 ec 10          	sub    $0x10,%rsp
  454d18:	48 89 7d f8          	mov    %rdi,-0x8(%rbp)
  454d1c:	48 8b 45 f8          	mov    -0x8(%rbp),%rax
  454d20:	48 8b 50 10          	mov    0x10(%rax),%rdx
  454d24:	48 8b 45 f8          	mov    -0x8(%rbp),%rax
  454d28:	48 8b 08             	mov    (%rax),%rcx
  454d2b:	48 89 d0             	mov    %rdx,%rax
  454d2e:	48 29 c8             	sub    %rcx,%rax
  454d31:	48 c1 f8 03          	sar    $0x3,%rax
  454d35:	48 89 c2             	mov    %rax,%rdx
  454d38:	48 8b 45 f8          	mov    -0x8(%rbp),%rax
  454d3c:	48 8b 08             	mov    (%rax),%rcx
  454d3f:	48 8b 45 f8          	mov    -0x8(%rbp),%rax
  454d43:	48 89 ce             	mov    %rcx,%rsi
  454d46:	48 89 c7             	mov    %rax,%rdi
  454d49:	e8 5a 07 00 00       	callq  4554a8 <_ZNSt12_Vector_baseISt6threadSaIS0_EE13_M_deallocateEPS0_m>
  454d4e:	48 8b 45 f8          	mov    -0x8(%rbp),%rax
  454d52:	48 89 c7             	mov    %rax,%rdi
  454d55:	e8 b4 f9 ff ff       	callq  45470e <_ZNSt12_Vector_baseISt6threadSaIS0_EE12_Vector_implD1Ev>
  454d5a:	90                   	nop
  454d5b:	c9                   	leaveq 
  454d5c:	c3                   	retq   
  454d5d:	90                   	nop

0000000000454d5e <_ZNSt6vectorISt6threadSaIS0_EED1Ev>:
  454d5e:	55                   	push   %rbp
  454d5f:	48 89 e5             	mov    %rsp,%rbp
  454d62:	48 83 ec 10          	sub    $0x10,%rsp
  454d66:	48 89 7d f8          	mov    %rdi,-0x8(%rbp)
  454d6a:	48 8b 45 f8          	mov    -0x8(%rbp),%rax
  454d6e:	48 89 c7             	mov    %rax,%rdi
  454d71:	e8 68 07 00 00       	callq  4554de <_ZNSt12_Vector_baseISt6threadSaIS0_EE19_M_get_Tp_allocatorEv>
  454d76:	48 89 c2             	mov    %rax,%rdx
  454d79:	48 8b 45 f8          	mov    -0x8(%rbp),%rax
  454d7d:	48 8b 48 08          	mov    0x8(%rax),%rcx
  454d81:	48 8b 45 f8          	mov    -0x8(%rbp),%rax
  454d85:	48 8b 00             	mov    (%rax),%rax
  454d88:	48 89 ce             	mov    %rcx,%rsi
  454d8b:	48 89 c7             	mov    %rax,%rdi
  454d8e:	e8 59 07 00 00       	callq  4554ec <_ZSt8_DestroyIPSt6threadS0_EvT_S2_RSaIT0_E>
  454d93:	48 8b 45 f8          	mov    -0x8(%rbp),%rax
  454d97:	48 89 c7             	mov    %rax,%rdi
  454d9a:	e8 71 ff ff ff       	callq  454d10 <_ZNSt12_Vector_baseISt6threadSaIS0_EED1Ev>
  454d9f:	90                   	nop
  454da0:	c9                   	leaveq 
  454da1:	c3                   	retq   

0000000000454da2 <_ZNSt6vectorISt6threadSaIS0_EE12emplace_backIJRFvjERjEEERS0_DpOT_>:
  454da2:	55                   	push   %rbp
  454da3:	48 89 e5             	mov    %rsp,%rbp
  454da6:	41 54                	push   %r12
  454da8:	53                   	push   %rbx
  454da9:	48 83 ec 20          	sub    $0x20,%rsp
  454dad:	48 89 7d e8          	mov    %rdi,-0x18(%rbp)
  454db1:	48 89 75 e0          	mov    %rsi,-0x20(%rbp)
  454db5:	48 89 55 d8          	mov    %rdx,-0x28(%rbp)
  454db9:	48 8b 45 e8          	mov    -0x18(%rbp),%rax
  454dbd:	48 8b 50 08          	mov    0x8(%rax),%rdx
  454dc1:	48 8b 45 e8          	mov    -0x18(%rbp),%rax
  454dc5:	48 8b 40 10          	mov    0x10(%rax),%rax
  454dc9:	48 39 c2             	cmp    %rax,%rdx
  454dcc:	74 4b                	je     454e19 <_ZNSt6vectorISt6threadSaIS0_EE12emplace_backIJRFvjERjEEERS0_DpOT_+0x77>
  454dce:	48 8b 45 d8          	mov    -0x28(%rbp),%rax
  454dd2:	48 89 c7             	mov    %rax,%rdi
  454dd5:	e8 4a 07 00 00       	callq  455524 <_ZSt7forwardIRjEOT_RNSt16remove_referenceIS1_E4typeE>
  454dda:	48 89 c3             	mov    %rax,%rbx
  454ddd:	48 8b 45 e0          	mov    -0x20(%rbp),%rax
  454de1:	48 89 c7             	mov    %rax,%rdi
  454de4:	e8 2d 07 00 00       	callq  455516 <_ZSt7forwardIRFvjEEOT_RNSt16remove_referenceIS2_E4typeE>
  454de9:	48 89 c2             	mov    %rax,%rdx
  454dec:	48 8b 45 e8          	mov    -0x18(%rbp),%rax
  454df0:	48 8b 70 08          	mov    0x8(%rax),%rsi
  454df4:	48 8b 45 e8          	mov    -0x18(%rbp),%rax
  454df8:	48 89 d9             	mov    %rbx,%rcx
  454dfb:	48 89 c7             	mov    %rax,%rdi
  454dfe:	e8 2f 07 00 00       	callq  455532 <_ZNSt16allocator_traitsISaISt6threadEE9constructIS0_JRFvjERjEEEvRS1_PT_DpOT0_>
  454e03:	48 8b 45 e8          	mov    -0x18(%rbp),%rax
  454e07:	48 8b 40 08          	mov    0x8(%rax),%rax
  454e0b:	48 8d 50 08          	lea    0x8(%rax),%rdx
  454e0f:	48 8b 45 e8          	mov    -0x18(%rbp),%rax
  454e13:	48 89 50 08          	mov    %rdx,0x8(%rax)
  454e17:	eb 3f                	jmp    454e58 <_ZNSt6vectorISt6threadSaIS0_EE12emplace_backIJRFvjERjEEERS0_DpOT_+0xb6>
  454e19:	48 8b 45 d8          	mov    -0x28(%rbp),%rax
  454e1d:	48 89 c7             	mov    %rax,%rdi
  454e20:	e8 ff 06 00 00       	callq  455524 <_ZSt7forwardIRjEOT_RNSt16remove_referenceIS1_E4typeE>
  454e25:	49 89 c4             	mov    %rax,%r12
  454e28:	48 8b 45 e0          	mov    -0x20(%rbp),%rax
  454e2c:	48 89 c7             	mov    %rax,%rdi
  454e2f:	e8 e2 06 00 00       	callq  455516 <_ZSt7forwardIRFvjEEOT_RNSt16remove_referenceIS2_E4typeE>
  454e34:	48 89 c3             	mov    %rax,%rbx
  454e37:	48 8b 45 e8          	mov    -0x18(%rbp),%rax
  454e3b:	48 89 c7             	mov    %rax,%rdi
  454e3e:	e8 51 00 00 00       	callq  454e94 <_ZNSt6vectorISt6threadSaIS0_EE3endEv>
  454e43:	48 89 c6             	mov    %rax,%rsi
  454e46:	48 8b 45 e8          	mov    -0x18(%rbp),%rax
  454e4a:	4c 89 e1             	mov    %r12,%rcx
  454e4d:	48 89 da             	mov    %rbx,%rdx
  454e50:	48 89 c7             	mov    %rax,%rdi
  454e53:	e8 2c 07 00 00       	callq  455584 <_ZNSt6vectorISt6threadSaIS0_EE17_M_realloc_insertIJRFvjERjEEEvN9__gnu_cxx17__normal_iteratorIPS0_S2_EEDpOT_>
  454e58:	48 8b 45 e8          	mov    -0x18(%rbp),%rax
  454e5c:	48 89 c7             	mov    %rax,%rdi
  454e5f:	e8 4c 09 00 00       	callq  4557b0 <_ZNSt6vectorISt6threadSaIS0_EE4backEv>
  454e64:	48 83 c4 20          	add    $0x20,%rsp
  454e68:	5b                   	pop    %rbx
  454e69:	41 5c                	pop    %r12
  454e6b:	5d                   	pop    %rbp
  454e6c:	c3                   	retq   
  454e6d:	90                   	nop

0000000000454e6e <_ZNSt6vectorISt6threadSaIS0_EE5beginEv>:
  454e6e:	55                   	push   %rbp
  454e6f:	48 89 e5             	mov    %rsp,%rbp
  454e72:	48 83 ec 20          	sub    $0x20,%rsp
  454e76:	48 89 7d e8          	mov    %rdi,-0x18(%rbp)
  454e7a:	48 8b 55 e8          	mov    -0x18(%rbp),%rdx
  454e7e:	48 8d 45 f8          	lea    -0x8(%rbp),%rax
  454e82:	48 89 d6             	mov    %rdx,%rsi
  454e85:	48 89 c7             	mov    %rax,%rdi
  454e88:	e8 63 09 00 00       	callq  4557f0 <_ZN9__gnu_cxx17__normal_iteratorIPSt6threadSt6vectorIS1_SaIS1_EEEC1ERKS2_>
  454e8d:	48 8b 45 f8          	mov    -0x8(%rbp),%rax
  454e91:	c9                   	leaveq 
  454e92:	c3                   	retq   
  454e93:	90                   	nop

0000000000454e94 <_ZNSt6vectorISt6threadSaIS0_EE3endEv>:
  454e94:	55                   	push   %rbp
  454e95:	48 89 e5             	mov    %rsp,%rbp
  454e98:	48 83 ec 20          	sub    $0x20,%rsp
  454e9c:	48 89 7d e8          	mov    %rdi,-0x18(%rbp)
  454ea0:	48 8b 45 e8          	mov    -0x18(%rbp),%rax
  454ea4:	48 8d 50 08          	lea    0x8(%rax),%rdx
  454ea8:	48 8d 45 f8          	lea    -0x8(%rbp),%rax
  454eac:	48 89 d6             	mov    %rdx,%rsi
  454eaf:	48 89 c7             	mov    %rax,%rdi
  454eb2:	e8 39 09 00 00       	callq  4557f0 <_ZN9__gnu_cxx17__normal_iteratorIPSt6threadSt6vectorIS1_SaIS1_EEEC1ERKS2_>
  454eb7:	48 8b 45 f8          	mov    -0x8(%rbp),%rax
  454ebb:	c9                   	leaveq 
  454ebc:	c3                   	retq   

0000000000454ebd <_ZN9__gnu_cxxneIPSt6threadSt6vectorIS1_SaIS1_EEEEbRKNS_17__normal_iteratorIT_T0_EESB_>:
  454ebd:	55                   	push   %rbp
  454ebe:	48 89 e5             	mov    %rsp,%rbp
  454ec1:	53                   	push   %rbx
  454ec2:	48 83 ec 18          	sub    $0x18,%rsp
  454ec6:	48 89 7d e8          	mov    %rdi,-0x18(%rbp)
  454eca:	48 89 75 e0          	mov    %rsi,-0x20(%rbp)
  454ece:	48 8b 45 e8          	mov    -0x18(%rbp),%rax
  454ed2:	48 89 c7             	mov    %rax,%rdi
  454ed5:	e8 34 09 00 00       	callq  45580e <_ZNK9__gnu_cxx17__normal_iteratorIPSt6threadSt6vectorIS1_SaIS1_EEE4baseEv>
  454eda:	48 8b 18             	mov    (%rax),%rbx
  454edd:	48 8b 45 e0          	mov    -0x20(%rbp),%rax
  454ee1:	48 89 c7             	mov    %rax,%rdi
  454ee4:	e8 25 09 00 00       	callq  45580e <_ZNK9__gnu_cxx17__normal_iteratorIPSt6threadSt6vectorIS1_SaIS1_EEE4baseEv>
  454ee9:	48 8b 00             	mov    (%rax),%rax
  454eec:	48 39 c3             	cmp    %rax,%rbx
  454eef:	0f 95 c0             	setne  %al
  454ef2:	48 8b 5d f8          	mov    -0x8(%rbp),%rbx
  454ef6:	c9                   	leaveq 
  454ef7:	c3                   	retq   

0000000000454ef8 <_ZN9__gnu_cxx17__normal_iteratorIPSt6threadSt6vectorIS1_SaIS1_EEEppEv>:
  454ef8:	55                   	push   %rbp
  454ef9:	48 89 e5             	mov    %rsp,%rbp
  454efc:	48 89 7d f8          	mov    %rdi,-0x8(%rbp)
  454f00:	48 8b 45 f8          	mov    -0x8(%rbp),%rax
  454f04:	48 8b 00             	mov    (%rax),%rax
  454f07:	48 8d 50 08          	lea    0x8(%rax),%rdx
  454f0b:	48 8b 45 f8          	mov    -0x8(%rbp),%rax
  454f0f:	48 89 10             	mov    %rdx,(%rax)
  454f12:	48 8b 45 f8          	mov    -0x8(%rbp),%rax
  454f16:	5d                   	pop    %rbp
  454f17:	c3                   	retq   

0000000000454f18 <_ZNK9__gnu_cxx17__normal_iteratorIPSt6threadSt6vectorIS1_SaIS1_EEEdeEv>:
  454f18:	55                   	push   %rbp
  454f19:	48 89 e5             	mov    %rsp,%rbp
  454f1c:	48 89 7d f8          	mov    %rdi,-0x8(%rbp)
  454f20:	48 8b 45 f8          	mov    -0x8(%rbp),%rax
  454f24:	48 8b 00             	mov    (%rax),%rax
  454f27:	5d                   	pop    %rbp
  454f28:	c3                   	retq   

0000000000454f29 <_ZSt4moveIRNSt6thread2idEEONSt16remove_referenceIT_E4typeEOS4_>:
  454f29:	55                   	push   %rbp
  454f2a:	48 89 e5             	mov    %rsp,%rbp
  454f2d:	48 89 7d f8          	mov    %rdi,-0x8(%rbp)
  454f31:	48 8b 45 f8          	mov    -0x8(%rbp),%rax
  454f35:	5d                   	pop    %rbp
  454f36:	c3                   	retq   

0000000000454f37 <_ZSt7forwardIRFvvEEOT_RNSt16remove_referenceIS2_E4typeE>:
  454f37:	55                   	push   %rbp
  454f38:	48 89 e5             	mov    %rsp,%rbp
  454f3b:	48 89 7d f8          	mov    %rdi,-0x8(%rbp)
  454f3f:	48 8b 45 f8          	mov    -0x8(%rbp),%rax
  454f43:	5d                   	pop    %rbp
  454f44:	c3                   	retq   

0000000000454f45 <_ZNSt6thread13_S_make_stateINS_8_InvokerISt5tupleIJPFvvEEEEEJRS3_EEESt10unique_ptrINS_6_StateESt14default_deleteIS9_EEDpOT0_>:
  454f45:	55                   	push   %rbp
  454f46:	48 89 e5             	mov    %rsp,%rbp
  454f49:	53                   	push   %rbx
  454f4a:	48 83 ec 28          	sub    $0x28,%rsp
  454f4e:	48 89 7d e8          	mov    %rdi,-0x18(%rbp)
  454f52:	48 89 75 e0          	mov    %rsi,-0x20(%rbp)
  454f56:	48 8b 45 e0          	mov    -0x20(%rbp),%rax
  454f5a:	48 89 c7             	mov    %rax,%rdi
  454f5d:	e8 d5 ff ff ff       	callq  454f37 <_ZSt7forwardIRFvvEEOT_RNSt16remove_referenceIS2_E4typeE>
  454f62:	48 89 c3             	mov    %rax,%rbx
  454f65:	bf 10 00 00 00       	mov    $0x10,%edi
  454f6a:	e8 f1 e3 ff ff       	callq  453360 <_Znwm@plt>
  454f6f:	48 89 c7             	mov    %rax,%rdi
  454f72:	48 89 de             	mov    %rbx,%rsi
  454f75:	48 89 7d d8          	mov    %rdi,-0x28(%rbp)
  454f79:	e8 dc 08 00 00       	callq  45585a <_ZNSt6thread11_State_implINS_8_InvokerISt5tupleIJPFvvEEEEEEC1IJRS3_EEEDpOT_>
  454f7e:	48 8b 45 e8          	mov    -0x18(%rbp),%rax
  454f82:	48 8b 75 d8          	mov    -0x28(%rbp),%rsi
  454f86:	48 89 c7             	mov    %rax,%rdi
  454f89:	e8 4a 09 00 00       	callq  4558d8 <_ZNSt10unique_ptrINSt6thread6_StateESt14default_deleteIS1_EEC1IS3_vEEPS1_>
  454f8e:	eb 1c                	jmp    454fac <_ZNSt6thread13_S_make_stateINS_8_InvokerISt5tupleIJPFvvEEEEEJRS3_EEESt10unique_ptrINS_6_StateESt14default_deleteIS9_EEDpOT0_+0x67>
  454f90:	48 89 c3             	mov    %rax,%rbx
  454f93:	be 10 00 00 00       	mov    $0x10,%esi
  454f98:	48 8b 7d d8          	mov    -0x28(%rbp),%rdi
  454f9c:	e8 cf e3 ff ff       	callq  453370 <_ZdlPvm@plt>
  454fa1:	48 89 d8             	mov    %rbx,%rax
  454fa4:	48 89 c7             	mov    %rax,%rdi
  454fa7:	e8 f4 e5 ff ff       	callq  4535a0 <_Unwind_Resume@plt>
  454fac:	48 8b 45 e8          	mov    -0x18(%rbp),%rax
  454fb0:	48 8b 5d f8          	mov    -0x8(%rbp),%rbx
  454fb4:	c9                   	leaveq 
  454fb5:	c3                   	retq   

0000000000454fb6 <_ZNSt10unique_ptrINSt6thread6_StateESt14default_deleteIS1_EED1Ev>:
  454fb6:	55                   	push   %rbp
  454fb7:	48 89 e5             	mov    %rsp,%rbp
  454fba:	53                   	push   %rbx
  454fbb:	48 83 ec 28          	sub    $0x28,%rsp
  454fbf:	48 89 7d d8          	mov    %rdi,-0x28(%rbp)
  454fc3:	48 8b 45 d8          	mov    -0x28(%rbp),%rax
  454fc7:	48 89 c7             	mov    %rax,%rdi
  454fca:	e8 2f 09 00 00       	callq  4558fe <_ZNSt15__uniq_ptr_implINSt6thread6_StateESt14default_deleteIS1_EE6_M_ptrEv>
  454fcf:	48 89 45 e8          	mov    %rax,-0x18(%rbp)
  454fd3:	48 8b 45 e8          	mov    -0x18(%rbp),%rax
  454fd7:	48 8b 00             	mov    (%rax),%rax
  454fda:	48 85 c0             	test   %rax,%rax
  454fdd:	74 29                	je     455008 <_ZNSt10unique_ptrINSt6thread6_StateESt14default_deleteIS1_EED1Ev+0x52>
  454fdf:	48 8b 45 d8          	mov    -0x28(%rbp),%rax
  454fe3:	48 89 c7             	mov    %rax,%rdi
  454fe6:	e8 2d 09 00 00       	callq  455918 <_ZNSt10unique_ptrINSt6thread6_StateESt14default_deleteIS1_EE11get_deleterEv>
  454feb:	48 89 c3             	mov    %rax,%rbx
  454fee:	48 8b 45 e8          	mov    -0x18(%rbp),%rax
  454ff2:	48 89 c7             	mov    %rax,%rdi
  454ff5:	e8 38 09 00 00       	callq  455932 <_ZSt4moveIRPNSt6thread6_StateEEONSt16remove_referenceIT_E4typeEOS5_>
  454ffa:	48 8b 00             	mov    (%rax),%rax
  454ffd:	48 89 c6             	mov    %rax,%rsi
  455000:	48 89 df             	mov    %rbx,%rdi
  455003:	e8 38 09 00 00       	callq  455940 <_ZNKSt14default_deleteINSt6thread6_StateEEclEPS1_>
  455008:	48 8b 45 e8          	mov    -0x18(%rbp),%rax
  45500c:	48 c7 00 00 00 00 00 	movq   $0x0,(%rax)
  455013:	90                   	nop
  455014:	48 8b 5d f8          	mov    -0x8(%rbp),%rbx
  455018:	c9                   	leaveq 
  455019:	c3                   	retq   

000000000045501a <_ZSt7forwardIRN2C215background_taskEEOT_RNSt16remove_referenceIS3_E4typeE>:
  45501a:	55                   	push   %rbp
  45501b:	48 89 e5             	mov    %rsp,%rbp
  45501e:	48 89 7d f8          	mov    %rdi,-0x8(%rbp)
  455022:	48 8b 45 f8          	mov    -0x8(%rbp),%rax
  455026:	5d                   	pop    %rbp
  455027:	c3                   	retq   

0000000000455028 <_ZNSt6thread13_S_make_stateINS_8_InvokerISt5tupleIJN2C215background_taskEEEEEJRS4_EEESt10unique_ptrINS_6_StateESt14default_deleteIS9_EEDpOT0_>:
  455028:	55                   	push   %rbp
  455029:	48 89 e5             	mov    %rsp,%rbp
  45502c:	53                   	push   %rbx
  45502d:	48 83 ec 28          	sub    $0x28,%rsp
  455031:	48 89 7d e8          	mov    %rdi,-0x18(%rbp)
  455035:	48 89 75 e0          	mov    %rsi,-0x20(%rbp)
  455039:	48 8b 45 e0          	mov    -0x20(%rbp),%rax
  45503d:	48 89 c7             	mov    %rax,%rdi
  455040:	e8 d5 ff ff ff       	callq  45501a <_ZSt7forwardIRN2C215background_taskEEOT_RNSt16remove_referenceIS3_E4typeE>
  455045:	48 89 c3             	mov    %rax,%rbx
  455048:	bf 10 00 00 00       	mov    $0x10,%edi
  45504d:	e8 0e e3 ff ff       	callq  453360 <_Znwm@plt>
  455052:	48 89 c7             	mov    %rax,%rdi
  455055:	48 89 de             	mov    %rbx,%rsi
  455058:	48 89 7d d8          	mov    %rdi,-0x28(%rbp)
  45505c:	e8 3f 09 00 00       	callq  4559a0 <_ZNSt6thread11_State_implINS_8_InvokerISt5tupleIJN2C215background_taskEEEEEEC1IJRS4_EEEDpOT_>
  455061:	48 8b 45 e8          	mov    -0x18(%rbp),%rax
  455065:	48 8b 75 d8          	mov    -0x28(%rbp),%rsi
  455069:	48 89 c7             	mov    %rax,%rdi
  45506c:	e8 67 08 00 00       	callq  4558d8 <_ZNSt10unique_ptrINSt6thread6_StateESt14default_deleteIS1_EEC1IS3_vEEPS1_>
  455071:	eb 1c                	jmp    45508f <_ZNSt6thread13_S_make_stateINS_8_InvokerISt5tupleIJN2C215background_taskEEEEEJRS4_EEESt10unique_ptrINS_6_StateESt14default_deleteIS9_EEDpOT0_+0x67>
  455073:	48 89 c3             	mov    %rax,%rbx
  455076:	be 10 00 00 00       	mov    $0x10,%esi
  45507b:	48 8b 7d d8          	mov    -0x28(%rbp),%rdi
  45507f:	e8 ec e2 ff ff       	callq  453370 <_ZdlPvm@plt>
  455084:	48 89 d8             	mov    %rbx,%rax
  455087:	48 89 c7             	mov    %rax,%rdi
  45508a:	e8 11 e5 ff ff       	callq  4535a0 <_Unwind_Resume@plt>
  45508f:	48 8b 45 e8          	mov    -0x18(%rbp),%rax
  455093:	48 8b 5d f8          	mov    -0x8(%rbp),%rbx
  455097:	c9                   	leaveq 
  455098:	c3                   	retq   
  455099:	90                   	nop

000000000045509a <_ZNSt17reference_wrapperIiEC1IRivPiEEOT_>:
  45509a:	55                   	push   %rbp
  45509b:	48 89 e5             	mov    %rsp,%rbp
  45509e:	48 83 ec 10          	sub    $0x10,%rsp
  4550a2:	48 89 7d f8          	mov    %rdi,-0x8(%rbp)
  4550a6:	48 89 75 f0          	mov    %rsi,-0x10(%rbp)
  4550aa:	48 8b 45 f0          	mov    -0x10(%rbp),%rax
  4550ae:	48 89 c7             	mov    %rax,%rdi
  4550b1:	e8 20 00 00 00       	callq  4550d6 <_ZSt7forwardIRiEOT_RNSt16remove_referenceIS1_E4typeE>
  4550b6:	48 89 c7             	mov    %rax,%rdi
  4550b9:	e8 31 09 00 00       	callq  4559ef <_ZNSt17reference_wrapperIiE6_S_funERi>
  4550be:	48 8b 55 f8          	mov    -0x8(%rbp),%rdx
  4550c2:	48 89 02             	mov    %rax,(%rdx)
  4550c5:	90                   	nop
  4550c6:	c9                   	leaveq 
  4550c7:	c3                   	retq   

00000000004550c8 <_ZSt7forwardIRFviRiEEOT_RNSt16remove_referenceIS3_E4typeE>:
  4550c8:	55                   	push   %rbp
  4550c9:	48 89 e5             	mov    %rsp,%rbp
  4550cc:	48 89 7d f8          	mov    %rdi,-0x8(%rbp)
  4550d0:	48 8b 45 f8          	mov    -0x8(%rbp),%rax
  4550d4:	5d                   	pop    %rbp
  4550d5:	c3                   	retq   

00000000004550d6 <_ZSt7forwardIRiEOT_RNSt16remove_referenceIS1_E4typeE>:
  4550d6:	55                   	push   %rbp
  4550d7:	48 89 e5             	mov    %rsp,%rbp
  4550da:	48 89 7d f8          	mov    %rdi,-0x8(%rbp)
  4550de:	48 8b 45 f8          	mov    -0x8(%rbp),%rax
  4550e2:	5d                   	pop    %rbp
  4550e3:	c3                   	retq   

00000000004550e4 <_ZSt7forwardISt17reference_wrapperIiEEOT_RNSt16remove_referenceIS2_E4typeE>:
  4550e4:	55                   	push   %rbp
  4550e5:	48 89 e5             	mov    %rsp,%rbp
  4550e8:	48 89 7d f8          	mov    %rdi,-0x8(%rbp)
  4550ec:	48 8b 45 f8          	mov    -0x8(%rbp),%rax
  4550f0:	5d                   	pop    %rbp
  4550f1:	c3                   	retq   

00000000004550f2 <_ZNSt6thread13_S_make_stateINS_8_InvokerISt5tupleIJPFviRiEiSt17reference_wrapperIiEEEEEJRS4_S3_S7_EEESt10unique_ptrINS_6_StateESt14default_deleteISC_EEDpOT0_>:
  4550f2:	55                   	push   %rbp
  4550f3:	48 89 e5             	mov    %rsp,%rbp
  4550f6:	41 55                	push   %r13
  4550f8:	41 54                	push   %r12
  4550fa:	53                   	push   %rbx
  4550fb:	48 83 ec 38          	sub    $0x38,%rsp
  4550ff:	48 89 7d d8          	mov    %rdi,-0x28(%rbp)
  455103:	48 89 75 d0          	mov    %rsi,-0x30(%rbp)
  455107:	48 89 55 c8          	mov    %rdx,-0x38(%rbp)
  45510b:	48 89 4d c0          	mov    %rcx,-0x40(%rbp)
  45510f:	48 8b 45 d0          	mov    -0x30(%rbp),%rax
  455113:	48 89 c7             	mov    %rax,%rdi
  455116:	e8 ad ff ff ff       	callq  4550c8 <_ZSt7forwardIRFviRiEEOT_RNSt16remove_referenceIS3_E4typeE>
  45511b:	48 89 c3             	mov    %rax,%rbx
  45511e:	48 8b 45 c8          	mov    -0x38(%rbp),%rax
  455122:	48 89 c7             	mov    %rax,%rdi
  455125:	e8 ac ff ff ff       	callq  4550d6 <_ZSt7forwardIRiEOT_RNSt16remove_referenceIS1_E4typeE>
  45512a:	49 89 c4             	mov    %rax,%r12
  45512d:	48 8b 45 c0          	mov    -0x40(%rbp),%rax
  455131:	48 89 c7             	mov    %rax,%rdi
  455134:	e8 ab ff ff ff       	callq  4550e4 <_ZSt7forwardISt17reference_wrapperIiEEOT_RNSt16remove_referenceIS2_E4typeE>
  455139:	49 89 c5             	mov    %rax,%r13
  45513c:	bf 20 00 00 00       	mov    $0x20,%edi
  455141:	e8 1a e2 ff ff       	callq  453360 <_Znwm@plt>
  455146:	48 89 c7             	mov    %rax,%rdi
  455149:	4c 89 e9             	mov    %r13,%rcx
  45514c:	4c 89 e2             	mov    %r12,%rdx
  45514f:	48 89 de             	mov    %rbx,%rsi
  455152:	48 89 7d b8          	mov    %rdi,-0x48(%rbp)
  455156:	e8 17 09 00 00       	callq  455a72 <_ZNSt6thread11_State_implINS_8_InvokerISt5tupleIJPFviRiEiSt17reference_wrapperIiEEEEEEC1IJRS4_S3_S7_EEEDpOT_>
  45515b:	48 8b 45 d8          	mov    -0x28(%rbp),%rax
  45515f:	48 8b 75 b8          	mov    -0x48(%rbp),%rsi
  455163:	48 89 c7             	mov    %rax,%rdi
  455166:	e8 6d 07 00 00       	callq  4558d8 <_ZNSt10unique_ptrINSt6thread6_StateESt14default_deleteIS1_EEC1IS3_vEEPS1_>
  45516b:	eb 1c                	jmp    455189 <_ZNSt6thread13_S_make_stateINS_8_InvokerISt5tupleIJPFviRiEiSt17reference_wrapperIiEEEEEJRS4_S3_S7_EEESt10unique_ptrINS_6_StateESt14default_deleteISC_EEDpOT0_+0x97>
  45516d:	48 89 c3             	mov    %rax,%rbx
  455170:	be 20 00 00 00       	mov    $0x20,%esi
  455175:	48 8b 7d b8          	mov    -0x48(%rbp),%rdi
  455179:	e8 f2 e1 ff ff       	callq  453370 <_ZdlPvm@plt>
  45517e:	48 89 d8             	mov    %rbx,%rax
  455181:	48 89 c7             	mov    %rax,%rdi
  455184:	e8 17 e4 ff ff       	callq  4535a0 <_Unwind_Resume@plt>
  455189:	48 8b 45 d8          	mov    -0x28(%rbp),%rax
  45518d:	48 83 c4 38          	add    $0x38,%rsp
  455191:	5b                   	pop    %rbx
  455192:	41 5c                	pop    %r12
  455194:	41 5d                	pop    %r13
  455196:	5d                   	pop    %rbp
  455197:	c3                   	retq   

0000000000455198 <_ZNSt17reference_wrapperIN2C22X4EEC1IRS1_vPS1_EEOT_>:
  455198:	55                   	push   %rbp
  455199:	48 89 e5             	mov    %rsp,%rbp
  45519c:	48 83 ec 10          	sub    $0x10,%rsp
  4551a0:	48 89 7d f8          	mov    %rdi,-0x8(%rbp)
  4551a4:	48 89 75 f0          	mov    %rsi,-0x10(%rbp)
  4551a8:	48 8b 45 f0          	mov    -0x10(%rbp),%rax
  4551ac:	48 89 c7             	mov    %rax,%rdi
  4551af:	e8 42 09 00 00       	callq  455af6 <_ZSt7forwardIRN2C22X4EEOT_RNSt16remove_referenceIS3_E4typeE>
  4551b4:	48 89 c7             	mov    %rax,%rdi
  4551b7:	e8 48 09 00 00       	callq  455b04 <_ZNSt17reference_wrapperIN2C22X4EE6_S_funERS1_>
  4551bc:	48 8b 55 f8          	mov    -0x8(%rbp),%rdx
  4551c0:	48 89 02             	mov    %rax,(%rdx)
  4551c3:	90                   	nop
  4551c4:	c9                   	leaveq 
  4551c5:	c3                   	retq   

00000000004551c6 <_ZSt7forwardIMN2C22X4EFvvEEOT_RNSt16remove_referenceIS4_E4typeE>:
  4551c6:	55                   	push   %rbp
  4551c7:	48 89 e5             	mov    %rsp,%rbp
  4551ca:	48 89 7d f8          	mov    %rdi,-0x8(%rbp)
  4551ce:	48 8b 45 f8          	mov    -0x8(%rbp),%rax
  4551d2:	5d                   	pop    %rbp
  4551d3:	c3                   	retq   

00000000004551d4 <_ZSt7forwardISt17reference_wrapperIN2C22X4EEEOT_RNSt16remove_referenceIS4_E4typeE>:
  4551d4:	55                   	push   %rbp
  4551d5:	48 89 e5             	mov    %rsp,%rbp
  4551d8:	48 89 7d f8          	mov    %rdi,-0x8(%rbp)
  4551dc:	48 8b 45 f8          	mov    -0x8(%rbp),%rax
  4551e0:	5d                   	pop    %rbp
  4551e1:	c3                   	retq   

00000000004551e2 <_ZNSt6thread13_S_make_stateINS_8_InvokerISt5tupleIJMN2C22X4EFvvESt17reference_wrapperIS4_EEEEEJS6_S8_EEESt10unique_ptrINS_6_StateESt14default_deleteISC_EEDpOT0_>:
  4551e2:	55                   	push   %rbp
  4551e3:	48 89 e5             	mov    %rsp,%rbp
  4551e6:	41 54                	push   %r12
  4551e8:	53                   	push   %rbx
  4551e9:	48 83 ec 20          	sub    $0x20,%rsp
  4551ed:	48 89 7d e8          	mov    %rdi,-0x18(%rbp)
  4551f1:	48 89 75 e0          	mov    %rsi,-0x20(%rbp)
  4551f5:	48 89 55 d8          	mov    %rdx,-0x28(%rbp)
  4551f9:	48 8b 45 e0          	mov    -0x20(%rbp),%rax
  4551fd:	48 89 c7             	mov    %rax,%rdi
  455200:	e8 c1 ff ff ff       	callq  4551c6 <_ZSt7forwardIMN2C22X4EFvvEEOT_RNSt16remove_referenceIS4_E4typeE>
  455205:	48 89 c3             	mov    %rax,%rbx
  455208:	48 8b 45 d8          	mov    -0x28(%rbp),%rax
  45520c:	48 89 c7             	mov    %rax,%rdi
  45520f:	e8 c0 ff ff ff       	callq  4551d4 <_ZSt7forwardISt17reference_wrapperIN2C22X4EEEOT_RNSt16remove_referenceIS4_E4typeE>
  455214:	49 89 c4             	mov    %rax,%r12
  455217:	bf 20 00 00 00       	mov    $0x20,%edi
  45521c:	e8 3f e1 ff ff       	callq  453360 <_Znwm@plt>
  455221:	48 89 c7             	mov    %rax,%rdi
  455224:	4c 89 e2             	mov    %r12,%rdx
  455227:	48 89 de             	mov    %rbx,%rsi
  45522a:	48 89 7d d0          	mov    %rdi,-0x30(%rbp)
  45522e:	e8 39 09 00 00       	callq  455b6c <_ZNSt6thread11_State_implINS_8_InvokerISt5tupleIJMN2C22X4EFvvESt17reference_wrapperIS4_EEEEEEC1IJS6_S8_EEEDpOT_>
  455233:	48 8b 45 e8          	mov    -0x18(%rbp),%rax
  455237:	48 8b 75 d0          	mov    -0x30(%rbp),%rsi
  45523b:	48 89 c7             	mov    %rax,%rdi
  45523e:	e8 95 06 00 00       	callq  4558d8 <_ZNSt10unique_ptrINSt6thread6_StateESt14default_deleteIS1_EEC1IS3_vEEPS1_>
  455243:	eb 1c                	jmp    455261 <_ZNSt6thread13_S_make_stateINS_8_InvokerISt5tupleIJMN2C22X4EFvvESt17reference_wrapperIS4_EEEEEJS6_S8_EEESt10unique_ptrINS_6_StateESt14default_deleteISC_EEDpOT0_+0x7f>
  455245:	48 89 c3             	mov    %rax,%rbx
  455248:	be 20 00 00 00       	mov    $0x20,%esi
  45524d:	48 8b 7d d0          	mov    -0x30(%rbp),%rdi
  455251:	e8 1a e1 ff ff       	callq  453370 <_ZdlPvm@plt>
  455256:	48 89 d8             	mov    %rbx,%rax
  455259:	48 89 c7             	mov    %rax,%rdi
  45525c:	e8 3f e3 ff ff       	callq  4535a0 <_Unwind_Resume@plt>
  455261:	48 8b 45 e8          	mov    -0x18(%rbp),%rax
  455265:	48 83 c4 20          	add    $0x20,%rsp
  455269:	5b                   	pop    %rbx
  45526a:	41 5c                	pop    %r12
  45526c:	5d                   	pop    %rbp
  45526d:	c3                   	retq   

000000000045526e <_ZNKSt10unique_ptrIN2C27big_objESt14default_deleteIS1_EE3getEv>:
  45526e:	55                   	push   %rbp
  45526f:	48 89 e5             	mov    %rsp,%rbp
  455272:	48 83 ec 10          	sub    $0x10,%rsp
  455276:	48 89 7d f8          	mov    %rdi,-0x8(%rbp)
  45527a:	48 8b 45 f8          	mov    -0x8(%rbp),%rax
  45527e:	48 89 c7             	mov    %rax,%rdi
  455281:	e8 50 09 00 00       	callq  455bd6 <_ZNKSt15__uniq_ptr_implIN2C27big_objESt14default_deleteIS1_EE6_M_ptrEv>
  455286:	c9                   	leaveq 
  455287:	c3                   	retq   

0000000000455288 <_ZNSt15__uniq_ptr_implIN2C27big_objESt14default_deleteIS1_EEC1EPS1_>:
  455288:	55                   	push   %rbp
  455289:	48 89 e5             	mov    %rsp,%rbp
  45528c:	53                   	push   %rbx
  45528d:	48 83 ec 18          	sub    $0x18,%rsp
  455291:	48 89 7d e8          	mov    %rdi,-0x18(%rbp)
  455295:	48 89 75 e0          	mov    %rsi,-0x20(%rbp)
  455299:	48 8b 45 e8          	mov    -0x18(%rbp),%rax
  45529d:	48 89 c7             	mov    %rax,%rdi
  4552a0:	e8 4f 09 00 00       	callq  455bf4 <_ZNSt5tupleIJPN2C27big_objESt14default_deleteIS1_EEEC1ILb1ELb1EEEv>
  4552a5:	48 8b 5d e0          	mov    -0x20(%rbp),%rbx
  4552a9:	48 8b 45 e8          	mov    -0x18(%rbp),%rax
  4552ad:	48 89 c7             	mov    %rax,%rdi
  4552b0:	e8 0b 00 00 00       	callq  4552c0 <_ZNSt15__uniq_ptr_implIN2C27big_objESt14default_deleteIS1_EE6_M_ptrEv>
  4552b5:	48 89 18             	mov    %rbx,(%rax)
  4552b8:	90                   	nop
  4552b9:	48 8b 5d f8          	mov    -0x8(%rbp),%rbx
  4552bd:	c9                   	leaveq 
  4552be:	c3                   	retq   
  4552bf:	90                   	nop

00000000004552c0 <_ZNSt15__uniq_ptr_implIN2C27big_objESt14default_deleteIS1_EE6_M_ptrEv>:
  4552c0:	55                   	push   %rbp
  4552c1:	48 89 e5             	mov    %rsp,%rbp
  4552c4:	48 83 ec 10          	sub    $0x10,%rsp
  4552c8:	48 89 7d f8          	mov    %rdi,-0x8(%rbp)
  4552cc:	48 8b 45 f8          	mov    -0x8(%rbp),%rax
  4552d0:	48 89 c7             	mov    %rax,%rdi
  4552d3:	e8 37 09 00 00       	callq  455c0f <_ZSt3getILm0EJPN2C27big_objESt14default_deleteIS1_EEERNSt13tuple_elementIXT_ESt5tupleIJDpT0_EEE4typeERS9_>
  4552d8:	c9                   	leaveq 
  4552d9:	c3                   	retq   

00000000004552da <_ZNSt10unique_ptrIN2C27big_objESt14default_deleteIS1_EE11get_deleterEv>:
  4552da:	55                   	push   %rbp
  4552db:	48 89 e5             	mov    %rsp,%rbp
  4552de:	48 83 ec 10          	sub    $0x10,%rsp
  4552e2:	48 89 7d f8          	mov    %rdi,-0x8(%rbp)
  4552e6:	48 8b 45 f8          	mov    -0x8(%rbp),%rax
  4552ea:	48 89 c7             	mov    %rax,%rdi
  4552ed:	e8 38 09 00 00       	callq  455c2a <_ZNSt15__uniq_ptr_implIN2C27big_objESt14default_deleteIS1_EE10_M_deleterEv>
  4552f2:	c9                   	leaveq 
  4552f3:	c3                   	retq   

00000000004552f4 <_ZSt4moveIRPN2C27big_objEEONSt16remove_referenceIT_E4typeEOS5_>:
  4552f4:	55                   	push   %rbp
  4552f5:	48 89 e5             	mov    %rsp,%rbp
  4552f8:	48 89 7d f8          	mov    %rdi,-0x8(%rbp)
  4552fc:	48 8b 45 f8          	mov    -0x8(%rbp),%rax
  455300:	5d                   	pop    %rbp
  455301:	c3                   	retq   

0000000000455302 <_ZNKSt14default_deleteIN2C27big_objEEclEPS1_>:
  455302:	55                   	push   %rbp
  455303:	48 89 e5             	mov    %rsp,%rbp
  455306:	48 83 ec 10          	sub    $0x10,%rsp
  45530a:	48 89 7d f8          	mov    %rdi,-0x8(%rbp)
  45530e:	48 89 75 f0          	mov    %rsi,-0x10(%rbp)
  455312:	48 8b 45 f0          	mov    -0x10(%rbp),%rax
  455316:	48 85 c0             	test   %rax,%rax
  455319:	74 0d                	je     455328 <_ZNKSt14default_deleteIN2C27big_objEEclEPS1_+0x26>
  45531b:	be 08 00 00 00       	mov    $0x8,%esi
  455320:	48 89 c7             	mov    %rax,%rdi
  455323:	e8 48 e0 ff ff       	callq  453370 <_ZdlPvm@plt>
  455328:	90                   	nop
  455329:	c9                   	leaveq 
  45532a:	c3                   	retq   

000000000045532b <_ZSt7forwardIRFvSt10unique_ptrIN2C27big_objESt14default_deleteIS2_EEEEOT_RNSt16remove_referenceIS8_E4typeE>:
  45532b:	55                   	push   %rbp
  45532c:	48 89 e5             	mov    %rsp,%rbp
  45532f:	48 89 7d f8          	mov    %rdi,-0x8(%rbp)
  455333:	48 8b 45 f8          	mov    -0x8(%rbp),%rax
  455337:	5d                   	pop    %rbp
  455338:	c3                   	retq   

0000000000455339 <_ZSt7forwardISt10unique_ptrIN2C27big_objESt14default_deleteIS2_EEEOT_RNSt16remove_referenceIS6_E4typeE>:
  455339:	55                   	push   %rbp
  45533a:	48 89 e5             	mov    %rsp,%rbp
  45533d:	48 89 7d f8          	mov    %rdi,-0x8(%rbp)
  455341:	48 8b 45 f8          	mov    -0x8(%rbp),%rax
  455345:	5d                   	pop    %rbp
  455346:	c3                   	retq   

0000000000455347 <_ZNSt6thread13_S_make_stateINS_8_InvokerISt5tupleIJPFvSt10unique_ptrIN2C27big_objESt14default_deleteIS5_EEES8_EEEEJRS9_S8_EEES3_INS_6_StateES6_ISE_EEDpOT0_>:
  455347:	55                   	push   %rbp
  455348:	48 89 e5             	mov    %rsp,%rbp
  45534b:	41 54                	push   %r12
  45534d:	53                   	push   %rbx
  45534e:	48 83 ec 20          	sub    $0x20,%rsp
  455352:	48 89 7d e8          	mov    %rdi,-0x18(%rbp)
  455356:	48 89 75 e0          	mov    %rsi,-0x20(%rbp)
  45535a:	48 89 55 d8          	mov    %rdx,-0x28(%rbp)
  45535e:	48 8b 45 e0          	mov    -0x20(%rbp),%rax
  455362:	48 89 c7             	mov    %rax,%rdi
  455365:	e8 c1 ff ff ff       	callq  45532b <_ZSt7forwardIRFvSt10unique_ptrIN2C27big_objESt14default_deleteIS2_EEEEOT_RNSt16remove_referenceIS8_E4typeE>
  45536a:	48 89 c3             	mov    %rax,%rbx
  45536d:	48 8b 45 d8          	mov    -0x28(%rbp),%rax
  455371:	48 89 c7             	mov    %rax,%rdi
  455374:	e8 c0 ff ff ff       	callq  455339 <_ZSt7forwardISt10unique_ptrIN2C27big_objESt14default_deleteIS2_EEEOT_RNSt16remove_referenceIS6_E4typeE>
  455379:	49 89 c4             	mov    %rax,%r12
  45537c:	bf 18 00 00 00       	mov    $0x18,%edi
  455381:	e8 da df ff ff       	callq  453360 <_Znwm@plt>
  455386:	48 89 c7             	mov    %rax,%rdi
  455389:	4c 89 e2             	mov    %r12,%rdx
  45538c:	48 89 de             	mov    %rbx,%rsi
  45538f:	48 89 7d d0          	mov    %rdi,-0x30(%rbp)
  455393:	e8 86 09 00 00       	callq  455d1e <_ZNSt6thread11_State_implINS_8_InvokerISt5tupleIJPFvSt10unique_ptrIN2C27big_objESt14default_deleteIS5_EEES8_EEEEEC1IJRS9_S8_EEEDpOT_>
  455398:	48 8b 45 e8          	mov    -0x18(%rbp),%rax
  45539c:	48 8b 75 d0          	mov    -0x30(%rbp),%rsi
  4553a0:	48 89 c7             	mov    %rax,%rdi
  4553a3:	e8 30 05 00 00       	callq  4558d8 <_ZNSt10unique_ptrINSt6thread6_StateESt14default_deleteIS1_EEC1IS3_vEEPS1_>
  4553a8:	eb 1c                	jmp    4553c6 <_ZNSt6thread13_S_make_stateINS_8_InvokerISt5tupleIJPFvSt10unique_ptrIN2C27big_objESt14default_deleteIS5_EEES8_EEEEJRS9_S8_EEES3_INS_6_StateES6_ISE_EEDpOT0_+0x7f>
  4553aa:	48 89 c3             	mov    %rax,%rbx
  4553ad:	be 18 00 00 00       	mov    $0x18,%esi
  4553b2:	48 8b 7d d0          	mov    -0x30(%rbp),%rdi
  4553b6:	e8 b5 df ff ff       	callq  453370 <_ZdlPvm@plt>
  4553bb:	48 89 d8             	mov    %rbx,%rax
  4553be:	48 89 c7             	mov    %rax,%rdi
  4553c1:	e8 da e1 ff ff       	callq  4535a0 <_Unwind_Resume@plt>
  4553c6:	48 8b 45 e8          	mov    -0x18(%rbp),%rax
  4553ca:	48 83 c4 20          	add    $0x20,%rsp
  4553ce:	5b                   	pop    %rbx
  4553cf:	41 5c                	pop    %r12
  4553d1:	5d                   	pop    %rbp
  4553d2:	c3                   	retq   

00000000004553d3 <_ZSt7forwardIN2C215background_taskEEOT_RNSt16remove_referenceIS2_E4typeE>:
  4553d3:	55                   	push   %rbp
  4553d4:	48 89 e5             	mov    %rsp,%rbp
  4553d7:	48 89 7d f8          	mov    %rdi,-0x8(%rbp)
  4553db:	48 8b 45 f8          	mov    -0x8(%rbp),%rax
  4553df:	5d                   	pop    %rbp
  4553e0:	c3                   	retq   

00000000004553e1 <_ZNSt6thread13_S_make_stateINS_8_InvokerISt5tupleIJN2C215background_taskEEEEEJS4_EEESt10unique_ptrINS_6_StateESt14default_deleteIS8_EEDpOT0_>:
  4553e1:	55                   	push   %rbp
  4553e2:	48 89 e5             	mov    %rsp,%rbp
  4553e5:	53                   	push   %rbx
  4553e6:	48 83 ec 28          	sub    $0x28,%rsp
  4553ea:	48 89 7d e8          	mov    %rdi,-0x18(%rbp)
  4553ee:	48 89 75 e0          	mov    %rsi,-0x20(%rbp)
  4553f2:	48 8b 45 e0          	mov    -0x20(%rbp),%rax
  4553f6:	48 89 c7             	mov    %rax,%rdi
  4553f9:	e8 d5 ff ff ff       	callq  4553d3 <_ZSt7forwardIN2C215background_taskEEOT_RNSt16remove_referenceIS2_E4typeE>
  4553fe:	48 89 c3             	mov    %rax,%rbx
  455401:	bf 10 00 00 00       	mov    $0x10,%edi
  455406:	e8 55 df ff ff       	callq  453360 <_Znwm@plt>
  45540b:	48 89 c7             	mov    %rax,%rdi
  45540e:	48 89 de             	mov    %rbx,%rsi
  455411:	48 89 7d d8          	mov    %rdi,-0x28(%rbp)
  455415:	e8 a2 09 00 00       	callq  455dbc <_ZNSt6thread11_State_implINS_8_InvokerISt5tupleIJN2C215background_taskEEEEEEC1IJS4_EEEDpOT_>
  45541a:	48 8b 45 e8          	mov    -0x18(%rbp),%rax
  45541e:	48 8b 75 d8          	mov    -0x28(%rbp),%rsi
  455422:	48 89 c7             	mov    %rax,%rdi
  455425:	e8 ae 04 00 00       	callq  4558d8 <_ZNSt10unique_ptrINSt6thread6_StateESt14default_deleteIS1_EEC1IS3_vEEPS1_>
  45542a:	eb 1c                	jmp    455448 <_ZNSt6thread13_S_make_stateINS_8_InvokerISt5tupleIJN2C215background_taskEEEEEJS4_EEESt10unique_ptrINS_6_StateESt14default_deleteIS8_EEDpOT0_+0x67>
  45542c:	48 89 c3             	mov    %rax,%rbx
  45542f:	be 10 00 00 00       	mov    $0x10,%esi
  455434:	48 8b 7d d8          	mov    -0x28(%rbp),%rdi
  455438:	e8 33 df ff ff       	callq  453370 <_ZdlPvm@plt>
  45543d:	48 89 d8             	mov    %rbx,%rax
  455440:	48 89 c7             	mov    %rax,%rdi
  455443:	e8 58 e1 ff ff       	callq  4535a0 <_Unwind_Resume@plt>
  455448:	48 8b 45 e8          	mov    -0x18(%rbp),%rax
  45544c:	48 8b 5d f8          	mov    -0x8(%rbp),%rbx
  455450:	c9                   	leaveq 
  455451:	c3                   	retq   

0000000000455452 <_ZNSaISt6threadEC1Ev>:
  455452:	55                   	push   %rbp
  455453:	48 89 e5             	mov    %rsp,%rbp
  455456:	48 83 ec 10          	sub    $0x10,%rsp
  45545a:	48 89 7d f8          	mov    %rdi,-0x8(%rbp)
  45545e:	48 8b 45 f8          	mov    -0x8(%rbp),%rax
  455462:	48 89 c7             	mov    %rax,%rdi
  455465:	e8 a2 09 00 00       	callq  455e0c <_ZN9__gnu_cxx13new_allocatorISt6threadEC1Ev>
  45546a:	90                   	nop
  45546b:	c9                   	leaveq 
  45546c:	c3                   	retq   
  45546d:	90                   	nop

000000000045546e <_ZNSt12_Vector_baseISt6threadSaIS0_EE17_Vector_impl_dataC1Ev>:
  45546e:	55                   	push   %rbp
  45546f:	48 89 e5             	mov    %rsp,%rbp
  455472:	48 89 7d f8          	mov    %rdi,-0x8(%rbp)
  455476:	48 8b 45 f8          	mov    -0x8(%rbp),%rax
  45547a:	48 c7 00 00 00 00 00 	movq   $0x0,(%rax)
  455481:	48 8b 45 f8          	mov    -0x8(%rbp),%rax
  455485:	48 c7 40 08 00 00 00 	movq   $0x0,0x8(%rax)
  45548c:	00 
  45548d:	48 8b 45 f8          	mov    -0x8(%rbp),%rax
  455491:	48 c7 40 10 00 00 00 	movq   $0x0,0x10(%rax)
  455498:	00 
  455499:	90                   	nop
  45549a:	5d                   	pop    %rbp
  45549b:	c3                   	retq   

000000000045549c <_ZN9__gnu_cxx13new_allocatorISt6threadED1Ev>:
  45549c:	55                   	push   %rbp
  45549d:	48 89 e5             	mov    %rsp,%rbp
  4554a0:	48 89 7d f8          	mov    %rdi,-0x8(%rbp)
  4554a4:	90                   	nop
  4554a5:	5d                   	pop    %rbp
  4554a6:	c3                   	retq   
  4554a7:	90                   	nop

00000000004554a8 <_ZNSt12_Vector_baseISt6threadSaIS0_EE13_M_deallocateEPS0_m>:
  4554a8:	55                   	push   %rbp
  4554a9:	48 89 e5             	mov    %rsp,%rbp
  4554ac:	48 83 ec 20          	sub    $0x20,%rsp
  4554b0:	48 89 7d f8          	mov    %rdi,-0x8(%rbp)
  4554b4:	48 89 75 f0          	mov    %rsi,-0x10(%rbp)
  4554b8:	48 89 55 e8          	mov    %rdx,-0x18(%rbp)
  4554bc:	48 83 7d f0 00       	cmpq   $0x0,-0x10(%rbp)
  4554c1:	74 17                	je     4554da <_ZNSt12_Vector_baseISt6threadSaIS0_EE13_M_deallocateEPS0_m+0x32>
  4554c3:	48 8b 45 f8          	mov    -0x8(%rbp),%rax
  4554c7:	48 8b 55 e8          	mov    -0x18(%rbp),%rdx
  4554cb:	48 8b 4d f0          	mov    -0x10(%rbp),%rcx
  4554cf:	48 89 ce             	mov    %rcx,%rsi
  4554d2:	48 89 c7             	mov    %rax,%rdi
  4554d5:	e8 3d 09 00 00       	callq  455e17 <_ZNSt16allocator_traitsISaISt6threadEE10deallocateERS1_PS0_m>
  4554da:	90                   	nop
  4554db:	c9                   	leaveq 
  4554dc:	c3                   	retq   
  4554dd:	90                   	nop

00000000004554de <_ZNSt12_Vector_baseISt6threadSaIS0_EE19_M_get_Tp_allocatorEv>:
  4554de:	55                   	push   %rbp
  4554df:	48 89 e5             	mov    %rsp,%rbp
  4554e2:	48 89 7d f8          	mov    %rdi,-0x8(%rbp)
  4554e6:	48 8b 45 f8          	mov    -0x8(%rbp),%rax
  4554ea:	5d                   	pop    %rbp
  4554eb:	c3                   	retq   

00000000004554ec <_ZSt8_DestroyIPSt6threadS0_EvT_S2_RSaIT0_E>:
  4554ec:	55                   	push   %rbp
  4554ed:	48 89 e5             	mov    %rsp,%rbp
  4554f0:	48 83 ec 20          	sub    $0x20,%rsp
  4554f4:	48 89 7d f8          	mov    %rdi,-0x8(%rbp)
  4554f8:	48 89 75 f0          	mov    %rsi,-0x10(%rbp)
  4554fc:	48 89 55 e8          	mov    %rdx,-0x18(%rbp)
  455500:	48 8b 55 f0          	mov    -0x10(%rbp),%rdx
  455504:	48 8b 45 f8          	mov    -0x8(%rbp),%rax
  455508:	48 89 d6             	mov    %rdx,%rsi
  45550b:	48 89 c7             	mov    %rax,%rdi
  45550e:	e8 32 09 00 00       	callq  455e45 <_ZSt8_DestroyIPSt6threadEvT_S2_>
  455513:	90                   	nop
  455514:	c9                   	leaveq 
  455515:	c3                   	retq   

0000000000455516 <_ZSt7forwardIRFvjEEOT_RNSt16remove_referenceIS2_E4typeE>:
  455516:	55                   	push   %rbp
  455517:	48 89 e5             	mov    %rsp,%rbp
  45551a:	48 89 7d f8          	mov    %rdi,-0x8(%rbp)
  45551e:	48 8b 45 f8          	mov    -0x8(%rbp),%rax
  455522:	5d                   	pop    %rbp
  455523:	c3                   	retq   

0000000000455524 <_ZSt7forwardIRjEOT_RNSt16remove_referenceIS1_E4typeE>:
  455524:	55                   	push   %rbp
  455525:	48 89 e5             	mov    %rsp,%rbp
  455528:	48 89 7d f8          	mov    %rdi,-0x8(%rbp)
  45552c:	48 8b 45 f8          	mov    -0x8(%rbp),%rax
  455530:	5d                   	pop    %rbp
  455531:	c3                   	retq   

0000000000455532 <_ZNSt16allocator_traitsISaISt6threadEE9constructIS0_JRFvjERjEEEvRS1_PT_DpOT0_>:
  455532:	55                   	push   %rbp
  455533:	48 89 e5             	mov    %rsp,%rbp
  455536:	53                   	push   %rbx
  455537:	48 83 ec 28          	sub    $0x28,%rsp
  45553b:	48 89 7d e8          	mov    %rdi,-0x18(%rbp)
  45553f:	48 89 75 e0          	mov    %rsi,-0x20(%rbp)
  455543:	48 89 55 d8          	mov    %rdx,-0x28(%rbp)
  455547:	48 89 4d d0          	mov    %rcx,-0x30(%rbp)
  45554b:	48 8b 45 d0          	mov    -0x30(%rbp),%rax
  45554f:	48 89 c7             	mov    %rax,%rdi
  455552:	e8 cd ff ff ff       	callq  455524 <_ZSt7forwardIRjEOT_RNSt16remove_referenceIS1_E4typeE>
  455557:	48 89 c3             	mov    %rax,%rbx
  45555a:	48 8b 45 d8          	mov    -0x28(%rbp),%rax
  45555e:	48 89 c7             	mov    %rax,%rdi
  455561:	e8 b0 ff ff ff       	callq  455516 <_ZSt7forwardIRFvjEEOT_RNSt16remove_referenceIS2_E4typeE>
  455566:	48 89 c2             	mov    %rax,%rdx
  455569:	48 8b 75 e0          	mov    -0x20(%rbp),%rsi
  45556d:	48 8b 45 e8          	mov    -0x18(%rbp),%rax
  455571:	48 89 d9             	mov    %rbx,%rcx
  455574:	48 89 c7             	mov    %rax,%rdi
  455577:	e8 f0 08 00 00       	callq  455e6c <_ZN9__gnu_cxx13new_allocatorISt6threadE9constructIS1_JRFvjERjEEEvPT_DpOT0_>
  45557c:	90                   	nop
  45557d:	48 8b 5d f8          	mov    -0x8(%rbp),%rbx
  455581:	c9                   	leaveq 
  455582:	c3                   	retq   
  455583:	90                   	nop

0000000000455584 <_ZNSt6vectorISt6threadSaIS0_EE17_M_realloc_insertIJRFvjERjEEEvN9__gnu_cxx17__normal_iteratorIPS0_S2_EEDpOT_>:
  455584:	55                   	push   %rbp
  455585:	48 89 e5             	mov    %rsp,%rbp
  455588:	53                   	push   %rbx
  455589:	48 83 ec 68          	sub    $0x68,%rsp
  45558d:	48 89 7d a8          	mov    %rdi,-0x58(%rbp)
  455591:	48 89 75 a0          	mov    %rsi,-0x60(%rbp)
  455595:	48 89 55 98          	mov    %rdx,-0x68(%rbp)
  455599:	48 89 4d 90          	mov    %rcx,-0x70(%rbp)
  45559d:	48 8b 45 a8          	mov    -0x58(%rbp),%rax
  4555a1:	ba dd f1 46 00       	mov    $0x46f1dd,%edx
  4555a6:	be 01 00 00 00       	mov    $0x1,%esi
  4555ab:	48 89 c7             	mov    %rax,%rdi
  4555ae:	e8 41 09 00 00       	callq  455ef4 <_ZNKSt6vectorISt6threadSaIS0_EE12_M_check_lenEmPKc>
  4555b3:	48 89 45 e8          	mov    %rax,-0x18(%rbp)
  4555b7:	48 8b 45 a8          	mov    -0x58(%rbp),%rax
  4555bb:	48 8b 00             	mov    (%rax),%rax
  4555be:	48 89 45 e0          	mov    %rax,-0x20(%rbp)
  4555c2:	48 8b 45 a8          	mov    -0x58(%rbp),%rax
  4555c6:	48 8b 40 08          	mov    0x8(%rax),%rax
  4555ca:	48 89 45 d8          	mov    %rax,-0x28(%rbp)
  4555ce:	48 8b 45 a8          	mov    -0x58(%rbp),%rax
  4555d2:	48 89 c7             	mov    %rax,%rdi
  4555d5:	e8 94 f8 ff ff       	callq  454e6e <_ZNSt6vectorISt6threadSaIS0_EE5beginEv>
  4555da:	48 89 45 b8          	mov    %rax,-0x48(%rbp)
  4555de:	48 8d 55 b8          	lea    -0x48(%rbp),%rdx
  4555e2:	48 8d 45 a0          	lea    -0x60(%rbp),%rax
  4555e6:	48 89 d6             	mov    %rdx,%rsi
  4555e9:	48 89 c7             	mov    %rax,%rdi
  4555ec:	e8 cb 09 00 00       	callq  455fbc <_ZN9__gnu_cxxmiIPSt6threadSt6vectorIS1_SaIS1_EEEENS_17__normal_iteratorIT_T0_E15difference_typeERKS9_SC_>
  4555f1:	48 89 45 d0          	mov    %rax,-0x30(%rbp)
  4555f5:	48 8b 45 a8          	mov    -0x58(%rbp),%rax
  4555f9:	48 8b 55 e8          	mov    -0x18(%rbp),%rdx
  4555fd:	48 89 d6             	mov    %rdx,%rsi
  455600:	48 89 c7             	mov    %rax,%rdi
  455603:	e8 f4 09 00 00       	callq  455ffc <_ZNSt12_Vector_baseISt6threadSaIS0_EE11_M_allocateEm>
  455608:	48 89 45 c8          	mov    %rax,-0x38(%rbp)
  45560c:	48 8b 45 c8          	mov    -0x38(%rbp),%rax
  455610:	48 89 45 c0          	mov    %rax,-0x40(%rbp)
  455614:	48 8b 45 90          	mov    -0x70(%rbp),%rax
  455618:	48 89 c7             	mov    %rax,%rdi
  45561b:	e8 04 ff ff ff       	callq  455524 <_ZSt7forwardIRjEOT_RNSt16remove_referenceIS1_E4typeE>
  455620:	48 89 c3             	mov    %rax,%rbx
  455623:	48 8b 45 98          	mov    -0x68(%rbp),%rax
  455627:	48 89 c7             	mov    %rax,%rdi
  45562a:	e8 e7 fe ff ff       	callq  455516 <_ZSt7forwardIRFvjEEOT_RNSt16remove_referenceIS2_E4typeE>
  45562f:	48 89 c2             	mov    %rax,%rdx
  455632:	48 8b 45 d0          	mov    -0x30(%rbp),%rax
  455636:	48 8d 0c c5 00 00 00 	lea    0x0(,%rax,8),%rcx
  45563d:	00 
  45563e:	48 8b 45 c8          	mov    -0x38(%rbp),%rax
  455642:	48 8d 34 01          	lea    (%rcx,%rax,1),%rsi
  455646:	48 8b 45 a8          	mov    -0x58(%rbp),%rax
  45564a:	48 89 d9             	mov    %rbx,%rcx
  45564d:	48 89 c7             	mov    %rax,%rdi
  455650:	e8 dd fe ff ff       	callq  455532 <_ZNSt16allocator_traitsISaISt6threadEE9constructIS0_JRFvjERjEEEvRS1_PT_DpOT0_>
  455655:	48 c7 45 c0 00 00 00 	movq   $0x0,-0x40(%rbp)
  45565c:	00 
  45565d:	48 8b 45 a8          	mov    -0x58(%rbp),%rax
  455661:	48 89 c7             	mov    %rax,%rdi
  455664:	e8 75 fe ff ff       	callq  4554de <_ZNSt12_Vector_baseISt6threadSaIS0_EE19_M_get_Tp_allocatorEv>
  455669:	48 89 c3             	mov    %rax,%rbx
  45566c:	48 8d 45 a0          	lea    -0x60(%rbp),%rax
  455670:	48 89 c7             	mov    %rax,%rdi
  455673:	e8 96 01 00 00       	callq  45580e <_ZNK9__gnu_cxx17__normal_iteratorIPSt6threadSt6vectorIS1_SaIS1_EEE4baseEv>
  455678:	48 8b 30             	mov    (%rax),%rsi
  45567b:	48 8b 55 c8          	mov    -0x38(%rbp),%rdx
  45567f:	48 8b 45 e0          	mov    -0x20(%rbp),%rax
  455683:	48 89 d9             	mov    %rbx,%rcx
  455686:	48 89 c7             	mov    %rax,%rdi
  455689:	e8 a1 09 00 00       	callq  45602f <_ZNSt6vectorISt6threadSaIS0_EE11_S_relocateEPS0_S3_S3_RS1_>
  45568e:	48 89 45 c0          	mov    %rax,-0x40(%rbp)
  455692:	48 83 45 c0 08       	addq   $0x8,-0x40(%rbp)
  455697:	48 8b 45 a8          	mov    -0x58(%rbp),%rax
  45569b:	48 89 c7             	mov    %rax,%rdi
  45569e:	e8 3b fe ff ff       	callq  4554de <_ZNSt12_Vector_baseISt6threadSaIS0_EE19_M_get_Tp_allocatorEv>
  4556a3:	48 89 c3             	mov    %rax,%rbx
  4556a6:	48 8d 45 a0          	lea    -0x60(%rbp),%rax
  4556aa:	48 89 c7             	mov    %rax,%rdi
  4556ad:	e8 5c 01 00 00       	callq  45580e <_ZNK9__gnu_cxx17__normal_iteratorIPSt6threadSt6vectorIS1_SaIS1_EEE4baseEv>
  4556b2:	48 8b 00             	mov    (%rax),%rax
  4556b5:	48 8b 55 c0          	mov    -0x40(%rbp),%rdx
  4556b9:	48 8b 75 d8          	mov    -0x28(%rbp),%rsi
  4556bd:	48 89 d9             	mov    %rbx,%rcx
  4556c0:	48 89 c7             	mov    %rax,%rdi
  4556c3:	e8 67 09 00 00       	callq  45602f <_ZNSt6vectorISt6threadSaIS0_EE11_S_relocateEPS0_S3_S3_RS1_>
  4556c8:	48 89 45 c0          	mov    %rax,-0x40(%rbp)
  4556cc:	48 8b 45 a8          	mov    -0x58(%rbp),%rax
  4556d0:	48 8b 55 a8          	mov    -0x58(%rbp),%rdx
  4556d4:	48 8b 52 10          	mov    0x10(%rdx),%rdx
  4556d8:	48 2b 55 e0          	sub    -0x20(%rbp),%rdx
  4556dc:	48 c1 fa 03          	sar    $0x3,%rdx
  4556e0:	48 8b 4d e0          	mov    -0x20(%rbp),%rcx
  4556e4:	48 89 ce             	mov    %rcx,%rsi
  4556e7:	48 89 c7             	mov    %rax,%rdi
  4556ea:	e8 b9 fd ff ff       	callq  4554a8 <_ZNSt12_Vector_baseISt6threadSaIS0_EE13_M_deallocateEPS0_m>
  4556ef:	48 8b 45 a8          	mov    -0x58(%rbp),%rax
  4556f3:	48 8b 55 c8          	mov    -0x38(%rbp),%rdx
  4556f7:	48 89 10             	mov    %rdx,(%rax)
  4556fa:	48 8b 45 a8          	mov    -0x58(%rbp),%rax
  4556fe:	48 8b 55 c0          	mov    -0x40(%rbp),%rdx
  455702:	48 89 50 08          	mov    %rdx,0x8(%rax)
  455706:	48 8b 45 e8          	mov    -0x18(%rbp),%rax
  45570a:	48 8d 14 c5 00 00 00 	lea    0x0(,%rax,8),%rdx
  455711:	00 
  455712:	48 8b 45 c8          	mov    -0x38(%rbp),%rax
  455716:	48 01 c2             	add    %rax,%rdx
  455719:	48 8b 45 a8          	mov    -0x58(%rbp),%rax
  45571d:	48 89 50 10          	mov    %rdx,0x10(%rax)
  455721:	e9 84 00 00 00       	jmpq   4557aa <_ZNSt6vectorISt6threadSaIS0_EE17_M_realloc_insertIJRFvjERjEEEvN9__gnu_cxx17__normal_iteratorIPS0_S2_EEDpOT_+0x226>
  455726:	48 89 c7             	mov    %rax,%rdi
  455729:	e8 f2 d9 ff ff       	callq  453120 <__cxa_begin_catch@plt>
  45572e:	48 83 7d c0 00       	cmpq   $0x0,-0x40(%rbp)
  455733:	75 24                	jne    455759 <_ZNSt6vectorISt6threadSaIS0_EE17_M_realloc_insertIJRFvjERjEEEvN9__gnu_cxx17__normal_iteratorIPS0_S2_EEDpOT_+0x1d5>
  455735:	48 8b 45 d0          	mov    -0x30(%rbp),%rax
  455739:	48 8d 14 c5 00 00 00 	lea    0x0(,%rax,8),%rdx
  455740:	00 
  455741:	48 8b 45 c8          	mov    -0x38(%rbp),%rax
  455745:	48 01 c2             	add    %rax,%rdx
  455748:	48 8b 45 a8          	mov    -0x58(%rbp),%rax
  45574c:	48 89 d6             	mov    %rdx,%rsi
  45574f:	48 89 c7             	mov    %rax,%rdi
  455752:	e8 0a 09 00 00       	callq  456061 <_ZNSt16allocator_traitsISaISt6threadEE7destroyIS0_EEvRS1_PT_>
  455757:	eb 22                	jmp    45577b <_ZNSt6vectorISt6threadSaIS0_EE17_M_realloc_insertIJRFvjERjEEEvN9__gnu_cxx17__normal_iteratorIPS0_S2_EEDpOT_+0x1f7>
  455759:	48 8b 45 a8          	mov    -0x58(%rbp),%rax
  45575d:	48 89 c7             	mov    %rax,%rdi
  455760:	e8 79 fd ff ff       	callq  4554de <_ZNSt12_Vector_baseISt6threadSaIS0_EE19_M_get_Tp_allocatorEv>
  455765:	48 89 c2             	mov    %rax,%rdx
  455768:	48 8b 4d c0          	mov    -0x40(%rbp),%rcx
  45576c:	48 8b 45 c8          	mov    -0x38(%rbp),%rax
  455770:	48 89 ce             	mov    %rcx,%rsi
  455773:	48 89 c7             	mov    %rax,%rdi
  455776:	e8 71 fd ff ff       	callq  4554ec <_ZSt8_DestroyIPSt6threadS0_EvT_S2_RSaIT0_E>
  45577b:	48 8b 45 a8          	mov    -0x58(%rbp),%rax
  45577f:	48 8b 55 e8          	mov    -0x18(%rbp),%rdx
  455783:	48 8b 4d c8          	mov    -0x38(%rbp),%rcx
  455787:	48 89 ce             	mov    %rcx,%rsi
  45578a:	48 89 c7             	mov    %rax,%rdi
  45578d:	e8 16 fd ff ff       	callq  4554a8 <_ZNSt12_Vector_baseISt6threadSaIS0_EE13_M_deallocateEPS0_m>
  455792:	e8 e9 dc ff ff       	callq  453480 <__cxa_rethrow@plt>
  455797:	48 89 c3             	mov    %rax,%rbx
  45579a:	e8 51 dd ff ff       	callq  4534f0 <__cxa_end_catch@plt>
  45579f:	48 89 d8             	mov    %rbx,%rax
  4557a2:	48 89 c7             	mov    %rax,%rdi
  4557a5:	e8 f6 dd ff ff       	callq  4535a0 <_Unwind_Resume@plt>
  4557aa:	48 8b 5d f8          	mov    -0x8(%rbp),%rbx
  4557ae:	c9                   	leaveq 
  4557af:	c3                   	retq   

00000000004557b0 <_ZNSt6vectorISt6threadSaIS0_EE4backEv>:
  4557b0:	55                   	push   %rbp
  4557b1:	48 89 e5             	mov    %rsp,%rbp
  4557b4:	48 83 ec 20          	sub    $0x20,%rsp
  4557b8:	48 89 7d e8          	mov    %rdi,-0x18(%rbp)
  4557bc:	48 8b 45 e8          	mov    -0x18(%rbp),%rax
  4557c0:	48 89 c7             	mov    %rax,%rdi
  4557c3:	e8 cc f6 ff ff       	callq  454e94 <_ZNSt6vectorISt6threadSaIS0_EE3endEv>
  4557c8:	48 89 45 f8          	mov    %rax,-0x8(%rbp)
  4557cc:	48 8d 45 f8          	lea    -0x8(%rbp),%rax
  4557d0:	be 01 00 00 00       	mov    $0x1,%esi
  4557d5:	48 89 c7             	mov    %rax,%rdi
  4557d8:	e8 ab 08 00 00       	callq  456088 <_ZNK9__gnu_cxx17__normal_iteratorIPSt6threadSt6vectorIS1_SaIS1_EEEmiEl>
  4557dd:	48 89 45 f0          	mov    %rax,-0x10(%rbp)
  4557e1:	48 8d 45 f0          	lea    -0x10(%rbp),%rax
  4557e5:	48 89 c7             	mov    %rax,%rdi
  4557e8:	e8 2b f7 ff ff       	callq  454f18 <_ZNK9__gnu_cxx17__normal_iteratorIPSt6threadSt6vectorIS1_SaIS1_EEEdeEv>
  4557ed:	c9                   	leaveq 
  4557ee:	c3                   	retq   
  4557ef:	90                   	nop

00000000004557f0 <_ZN9__gnu_cxx17__normal_iteratorIPSt6threadSt6vectorIS1_SaIS1_EEEC1ERKS2_>:
  4557f0:	55                   	push   %rbp
  4557f1:	48 89 e5             	mov    %rsp,%rbp
  4557f4:	48 89 7d f8          	mov    %rdi,-0x8(%rbp)
  4557f8:	48 89 75 f0          	mov    %rsi,-0x10(%rbp)
  4557fc:	48 8b 45 f0          	mov    -0x10(%rbp),%rax
  455800:	48 8b 10             	mov    (%rax),%rdx
  455803:	48 8b 45 f8          	mov    -0x8(%rbp),%rax
  455807:	48 89 10             	mov    %rdx,(%rax)
  45580a:	90                   	nop
  45580b:	5d                   	pop    %rbp
  45580c:	c3                   	retq   
  45580d:	90                   	nop

000000000045580e <_ZNK9__gnu_cxx17__normal_iteratorIPSt6threadSt6vectorIS1_SaIS1_EEE4baseEv>:
  45580e:	55                   	push   %rbp
  45580f:	48 89 e5             	mov    %rsp,%rbp
  455812:	48 89 7d f8          	mov    %rdi,-0x8(%rbp)
  455816:	48 8b 45 f8          	mov    -0x8(%rbp),%rax
  45581a:	5d                   	pop    %rbp
  45581b:	c3                   	retq   

000000000045581c <_ZNSt6thread6_StateC1Ev>:
  45581c:	55                   	push   %rbp
  45581d:	48 89 e5             	mov    %rsp,%rbp
  455820:	48 89 7d f8          	mov    %rdi,-0x8(%rbp)
  455824:	ba b0 7b 48 00       	mov    $0x487bb0,%edx
  455829:	48 8b 45 f8          	mov    -0x8(%rbp),%rax
  45582d:	48 89 10             	mov    %rdx,(%rax)
  455830:	90                   	nop
  455831:	5d                   	pop    %rbp
  455832:	c3                   	retq   
  455833:	90                   	nop

0000000000455834 <_ZNSt5tupleIJPFvvEEEC1ILb1ELb1EEERKS1_>:
  455834:	55                   	push   %rbp
  455835:	48 89 e5             	mov    %rsp,%rbp
  455838:	48 83 ec 10          	sub    $0x10,%rsp
  45583c:	48 89 7d f8          	mov    %rdi,-0x8(%rbp)
  455840:	48 89 75 f0          	mov    %rsi,-0x10(%rbp)
  455844:	48 8b 45 f8          	mov    -0x8(%rbp),%rax
  455848:	48 8b 55 f0          	mov    -0x10(%rbp),%rdx
  45584c:	48 89 d6             	mov    %rdx,%rsi
  45584f:	48 89 c7             	mov    %rax,%rdi
  455852:	e8 73 08 00 00       	callq  4560ca <_ZNSt11_Tuple_implILm0EJPFvvEEEC1ERKS1_>
  455857:	90                   	nop
  455858:	c9                   	leaveq 
  455859:	c3                   	retq   

000000000045585a <_ZNSt6thread11_State_implINS_8_InvokerISt5tupleIJPFvvEEEEEEC1IJRS3_EEEDpOT_>:
  45585a:	55                   	push   %rbp
  45585b:	48 89 e5             	mov    %rsp,%rbp
  45585e:	53                   	push   %rbx
  45585f:	48 83 ec 28          	sub    $0x28,%rsp
  455863:	48 89 7d d8          	mov    %rdi,-0x28(%rbp)
  455867:	48 89 75 d0          	mov    %rsi,-0x30(%rbp)
  45586b:	48 8b 45 d8          	mov    -0x28(%rbp),%rax
  45586f:	48 89 c7             	mov    %rax,%rdi
  455872:	e8 a5 ff ff ff       	callq  45581c <_ZNSt6thread6_StateC1Ev>
  455877:	ba d0 f2 46 00       	mov    $0x46f2d0,%edx
  45587c:	48 8b 45 d8          	mov    -0x28(%rbp),%rax
  455880:	48 89 10             	mov    %rdx,(%rax)
  455883:	48 8b 45 d8          	mov    -0x28(%rbp),%rax
  455887:	48 8d 58 08          	lea    0x8(%rax),%rbx
  45588b:	48 8b 45 d0          	mov    -0x30(%rbp),%rax
  45588f:	48 89 c7             	mov    %rax,%rdi
  455892:	e8 a0 f6 ff ff       	callq  454f37 <_ZSt7forwardIRFvvEEOT_RNSt16remove_referenceIS2_E4typeE>
  455897:	48 89 45 e8          	mov    %rax,-0x18(%rbp)
  45589b:	48 8d 45 e8          	lea    -0x18(%rbp),%rax
  45589f:	48 89 c6             	mov    %rax,%rsi
  4558a2:	48 89 df             	mov    %rbx,%rdi
  4558a5:	e8 8a ff ff ff       	callq  455834 <_ZNSt5tupleIJPFvvEEEC1ILb1ELb1EEERKS1_>
  4558aa:	90                   	nop
  4558ab:	48 8b 5d f8          	mov    -0x8(%rbp),%rbx
  4558af:	c9                   	leaveq 
  4558b0:	c3                   	retq   
  4558b1:	90                   	nop

00000000004558b2 <_ZNSt15__uniq_ptr_dataINSt6thread6_StateESt14default_deleteIS1_ELb1ELb1EECI1St15__uniq_ptr_implIS1_S3_EEPS1_>:
  4558b2:	55                   	push   %rbp
  4558b3:	48 89 e5             	mov    %rsp,%rbp
  4558b6:	48 83 ec 10          	sub    $0x10,%rsp
  4558ba:	48 89 7d f8          	mov    %rdi,-0x8(%rbp)
  4558be:	48 89 75 f0          	mov    %rsi,-0x10(%rbp)
  4558c2:	48 8b 45 f8          	mov    -0x8(%rbp),%rax
  4558c6:	48 8b 55 f0          	mov    -0x10(%rbp),%rdx
  4558ca:	48 89 d6             	mov    %rdx,%rsi
  4558cd:	48 89 c7             	mov    %rax,%rdi
  4558d0:	e8 1b 08 00 00       	callq  4560f0 <_ZNSt15__uniq_ptr_implINSt6thread6_StateESt14default_deleteIS1_EEC1EPS1_>
  4558d5:	90                   	nop
  4558d6:	c9                   	leaveq 
  4558d7:	c3                   	retq   

00000000004558d8 <_ZNSt10unique_ptrINSt6thread6_StateESt14default_deleteIS1_EEC1IS3_vEEPS1_>:
  4558d8:	55                   	push   %rbp
  4558d9:	48 89 e5             	mov    %rsp,%rbp
  4558dc:	48 83 ec 10          	sub    $0x10,%rsp
  4558e0:	48 89 7d f8          	mov    %rdi,-0x8(%rbp)
  4558e4:	48 89 75 f0          	mov    %rsi,-0x10(%rbp)
  4558e8:	48 8b 45 f8          	mov    -0x8(%rbp),%rax
  4558ec:	48 8b 55 f0          	mov    -0x10(%rbp),%rdx
  4558f0:	48 89 d6             	mov    %rdx,%rsi
  4558f3:	48 89 c7             	mov    %rax,%rdi
  4558f6:	e8 b7 ff ff ff       	callq  4558b2 <_ZNSt15__uniq_ptr_dataINSt6thread6_StateESt14default_deleteIS1_ELb1ELb1EECI1St15__uniq_ptr_implIS1_S3_EEPS1_>
  4558fb:	90                   	nop
  4558fc:	c9                   	leaveq 
  4558fd:	c3                   	retq   

00000000004558fe <_ZNSt15__uniq_ptr_implINSt6thread6_StateESt14default_deleteIS1_EE6_M_ptrEv>:
  4558fe:	55                   	push   %rbp
  4558ff:	48 89 e5             	mov    %rsp,%rbp
  455902:	48 83 ec 10          	sub    $0x10,%rsp
  455906:	48 89 7d f8          	mov    %rdi,-0x8(%rbp)
  45590a:	48 8b 45 f8          	mov    -0x8(%rbp),%rax
  45590e:	48 89 c7             	mov    %rax,%rdi
  455911:	e8 11 08 00 00       	callq  456127 <_ZSt3getILm0EJPNSt6thread6_StateESt14default_deleteIS1_EEERNSt13tuple_elementIXT_ESt5tupleIJDpT0_EEE4typeERS9_>
  455916:	c9                   	leaveq 
  455917:	c3                   	retq   

0000000000455918 <_ZNSt10unique_ptrINSt6thread6_StateESt14default_deleteIS1_EE11get_deleterEv>:
  455918:	55                   	push   %rbp
  455919:	48 89 e5             	mov    %rsp,%rbp
  45591c:	48 83 ec 10          	sub    $0x10,%rsp
  455920:	48 89 7d f8          	mov    %rdi,-0x8(%rbp)
  455924:	48 8b 45 f8          	mov    -0x8(%rbp),%rax
  455928:	48 89 c7             	mov    %rax,%rdi
  45592b:	e8 12 08 00 00       	callq  456142 <_ZNSt15__uniq_ptr_implINSt6thread6_StateESt14default_deleteIS1_EE10_M_deleterEv>
  455930:	c9                   	leaveq 
  455931:	c3                   	retq   

0000000000455932 <_ZSt4moveIRPNSt6thread6_StateEEONSt16remove_referenceIT_E4typeEOS5_>:
  455932:	55                   	push   %rbp
  455933:	48 89 e5             	mov    %rsp,%rbp
  455936:	48 89 7d f8          	mov    %rdi,-0x8(%rbp)
  45593a:	48 8b 45 f8          	mov    -0x8(%rbp),%rax
  45593e:	5d                   	pop    %rbp
  45593f:	c3                   	retq   

0000000000455940 <_ZNKSt14default_deleteINSt6thread6_StateEEclEPS1_>:
  455940:	55                   	push   %rbp
  455941:	48 89 e5             	mov    %rsp,%rbp
  455944:	48 83 ec 10          	sub    $0x10,%rsp
  455948:	48 89 7d f8          	mov    %rdi,-0x8(%rbp)
  45594c:	48 89 75 f0          	mov    %rsi,-0x10(%rbp)
  455950:	48 8b 45 f0          	mov    -0x10(%rbp),%rax
  455954:	48 85 c0             	test   %rax,%rax
  455957:	74 0f                	je     455968 <_ZNKSt14default_deleteINSt6thread6_StateEEclEPS1_+0x28>
  455959:	48 8b 10             	mov    (%rax),%rdx
  45595c:	48 83 c2 08          	add    $0x8,%rdx
  455960:	48 8b 12             	mov    (%rdx),%rdx
  455963:	48 89 c7             	mov    %rax,%rdi
  455966:	ff d2                	callq  *%rdx
  455968:	90                   	nop
  455969:	c9                   	leaveq 
  45596a:	c3                   	retq   
  45596b:	90                   	nop

000000000045596c <_ZNSt5tupleIJN2C215background_taskEEEC1IJRS1_ELb1ELb1EEEDpOT_>:
  45596c:	55                   	push   %rbp
  45596d:	48 89 e5             	mov    %rsp,%rbp
  455970:	53                   	push   %rbx
  455971:	48 83 ec 18          	sub    $0x18,%rsp
  455975:	48 89 7d e8          	mov    %rdi,-0x18(%rbp)
  455979:	48 89 75 e0          	mov    %rsi,-0x20(%rbp)
  45597d:	48 8b 5d e8          	mov    -0x18(%rbp),%rbx
  455981:	48 8b 45 e0          	mov    -0x20(%rbp),%rax
  455985:	48 89 c7             	mov    %rax,%rdi
  455988:	e8 8d f6 ff ff       	callq  45501a <_ZSt7forwardIRN2C215background_taskEEOT_RNSt16remove_referenceIS3_E4typeE>
  45598d:	48 89 c6             	mov    %rax,%rsi
  455990:	48 89 df             	mov    %rbx,%rdi
  455993:	e8 c4 07 00 00       	callq  45615c <_ZNSt11_Tuple_implILm0EJN2C215background_taskEEEC1IRS1_EEOT_>
  455998:	90                   	nop
  455999:	48 8b 5d f8          	mov    -0x8(%rbp),%rbx
  45599d:	c9                   	leaveq 
  45599e:	c3                   	retq   
  45599f:	90                   	nop

00000000004559a0 <_ZNSt6thread11_State_implINS_8_InvokerISt5tupleIJN2C215background_taskEEEEEEC1IJRS4_EEEDpOT_>:
  4559a0:	55                   	push   %rbp
  4559a1:	48 89 e5             	mov    %rsp,%rbp
  4559a4:	53                   	push   %rbx
  4559a5:	48 83 ec 18          	sub    $0x18,%rsp
  4559a9:	48 89 7d e8          	mov    %rdi,-0x18(%rbp)
  4559ad:	48 89 75 e0          	mov    %rsi,-0x20(%rbp)
  4559b1:	48 8b 45 e8          	mov    -0x18(%rbp),%rax
  4559b5:	48 89 c7             	mov    %rax,%rdi
  4559b8:	e8 5f fe ff ff       	callq  45581c <_ZNSt6thread6_StateC1Ev>
  4559bd:	ba a8 f2 46 00       	mov    $0x46f2a8,%edx
  4559c2:	48 8b 45 e8          	mov    -0x18(%rbp),%rax
  4559c6:	48 89 10             	mov    %rdx,(%rax)
  4559c9:	48 8b 45 e8          	mov    -0x18(%rbp),%rax
  4559cd:	48 8d 58 08          	lea    0x8(%rax),%rbx
  4559d1:	48 8b 45 e0          	mov    -0x20(%rbp),%rax
  4559d5:	48 89 c7             	mov    %rax,%rdi
  4559d8:	e8 3d f6 ff ff       	callq  45501a <_ZSt7forwardIRN2C215background_taskEEOT_RNSt16remove_referenceIS3_E4typeE>
  4559dd:	48 89 c6             	mov    %rax,%rsi
  4559e0:	48 89 df             	mov    %rbx,%rdi
  4559e3:	e8 84 ff ff ff       	callq  45596c <_ZNSt5tupleIJN2C215background_taskEEEC1IJRS1_ELb1ELb1EEEDpOT_>
  4559e8:	90                   	nop
  4559e9:	48 8b 5d f8          	mov    -0x8(%rbp),%rbx
  4559ed:	c9                   	leaveq 
  4559ee:	c3                   	retq   

00000000004559ef <_ZNSt17reference_wrapperIiE6_S_funERi>:
  4559ef:	55                   	push   %rbp
  4559f0:	48 89 e5             	mov    %rsp,%rbp
  4559f3:	48 83 ec 10          	sub    $0x10,%rsp
  4559f7:	48 89 7d f8          	mov    %rdi,-0x8(%rbp)
  4559fb:	48 8b 45 f8          	mov    -0x8(%rbp),%rax
  4559ff:	48 89 c7             	mov    %rax,%rdi
  455a02:	e8 88 07 00 00       	callq  45618f <_ZSt11__addressofIiEPT_RS0_>
  455a07:	c9                   	leaveq 
  455a08:	c3                   	retq   
  455a09:	90                   	nop

0000000000455a0a <_ZNSt5tupleIJPFviRiEiSt17reference_wrapperIiEEEC1IJRS1_S0_S4_ELb1ELb1EEEDpOT_>:
  455a0a:	55                   	push   %rbp
  455a0b:	48 89 e5             	mov    %rsp,%rbp
  455a0e:	41 55                	push   %r13
  455a10:	41 54                	push   %r12
  455a12:	53                   	push   %rbx
  455a13:	48 83 ec 28          	sub    $0x28,%rsp
  455a17:	48 89 7d d8          	mov    %rdi,-0x28(%rbp)
  455a1b:	48 89 75 d0          	mov    %rsi,-0x30(%rbp)
  455a1f:	48 89 55 c8          	mov    %rdx,-0x38(%rbp)
  455a23:	48 89 4d c0          	mov    %rcx,-0x40(%rbp)
  455a27:	48 8b 5d d8          	mov    -0x28(%rbp),%rbx
  455a2b:	48 8b 45 c0          	mov    -0x40(%rbp),%rax
  455a2f:	48 89 c7             	mov    %rax,%rdi
  455a32:	e8 ad f6 ff ff       	callq  4550e4 <_ZSt7forwardISt17reference_wrapperIiEEOT_RNSt16remove_referenceIS2_E4typeE>
  455a37:	49 89 c5             	mov    %rax,%r13
  455a3a:	48 8b 45 c8          	mov    -0x38(%rbp),%rax
  455a3e:	48 89 c7             	mov    %rax,%rdi
  455a41:	e8 90 f6 ff ff       	callq  4550d6 <_ZSt7forwardIRiEOT_RNSt16remove_referenceIS1_E4typeE>
  455a46:	49 89 c4             	mov    %rax,%r12
  455a49:	48 8b 45 d0          	mov    -0x30(%rbp),%rax
  455a4d:	48 89 c7             	mov    %rax,%rdi
  455a50:	e8 73 f6 ff ff       	callq  4550c8 <_ZSt7forwardIRFviRiEEOT_RNSt16remove_referenceIS3_E4typeE>
  455a55:	4c 89 e9             	mov    %r13,%rcx
  455a58:	4c 89 e2             	mov    %r12,%rdx
  455a5b:	48 89 c6             	mov    %rax,%rsi
  455a5e:	48 89 df             	mov    %rbx,%rdi
  455a61:	e8 38 07 00 00       	callq  45619e <_ZNSt11_Tuple_implILm0EJPFviRiEiSt17reference_wrapperIiEEEC1IRS1_JS0_S4_EvEEOT_DpOT0_>
  455a66:	90                   	nop
  455a67:	48 83 c4 28          	add    $0x28,%rsp
  455a6b:	5b                   	pop    %rbx
  455a6c:	41 5c                	pop    %r12
  455a6e:	41 5d                	pop    %r13
  455a70:	5d                   	pop    %rbp
  455a71:	c3                   	retq   

0000000000455a72 <_ZNSt6thread11_State_implINS_8_InvokerISt5tupleIJPFviRiEiSt17reference_wrapperIiEEEEEEC1IJRS4_S3_S7_EEEDpOT_>:
  455a72:	55                   	push   %rbp
  455a73:	48 89 e5             	mov    %rsp,%rbp
  455a76:	41 55                	push   %r13
  455a78:	41 54                	push   %r12
  455a7a:	53                   	push   %rbx
  455a7b:	48 83 ec 28          	sub    $0x28,%rsp
  455a7f:	48 89 7d d8          	mov    %rdi,-0x28(%rbp)
  455a83:	48 89 75 d0          	mov    %rsi,-0x30(%rbp)
  455a87:	48 89 55 c8          	mov    %rdx,-0x38(%rbp)
  455a8b:	48 89 4d c0          	mov    %rcx,-0x40(%rbp)
  455a8f:	48 8b 45 d8          	mov    -0x28(%rbp),%rax
  455a93:	48 89 c7             	mov    %rax,%rdi
  455a96:	e8 81 fd ff ff       	callq  45581c <_ZNSt6thread6_StateC1Ev>
  455a9b:	ba 80 f2 46 00       	mov    $0x46f280,%edx
  455aa0:	48 8b 45 d8          	mov    -0x28(%rbp),%rax
  455aa4:	48 89 10             	mov    %rdx,(%rax)
  455aa7:	48 8b 45 d8          	mov    -0x28(%rbp),%rax
  455aab:	48 8d 58 08          	lea    0x8(%rax),%rbx
  455aaf:	48 8b 45 d0          	mov    -0x30(%rbp),%rax
  455ab3:	48 89 c7             	mov    %rax,%rdi
  455ab6:	e8 0d f6 ff ff       	callq  4550c8 <_ZSt7forwardIRFviRiEEOT_RNSt16remove_referenceIS3_E4typeE>
  455abb:	49 89 c4             	mov    %rax,%r12
  455abe:	48 8b 45 c8          	mov    -0x38(%rbp),%rax
  455ac2:	48 89 c7             	mov    %rax,%rdi
  455ac5:	e8 0c f6 ff ff       	callq  4550d6 <_ZSt7forwardIRiEOT_RNSt16remove_referenceIS1_E4typeE>
  455aca:	49 89 c5             	mov    %rax,%r13
  455acd:	48 8b 45 c0          	mov    -0x40(%rbp),%rax
  455ad1:	48 89 c7             	mov    %rax,%rdi
  455ad4:	e8 0b f6 ff ff       	callq  4550e4 <_ZSt7forwardISt17reference_wrapperIiEEOT_RNSt16remove_referenceIS2_E4typeE>
  455ad9:	48 89 c1             	mov    %rax,%rcx
  455adc:	4c 89 ea             	mov    %r13,%rdx
  455adf:	4c 89 e6             	mov    %r12,%rsi
  455ae2:	48 89 df             	mov    %rbx,%rdi
  455ae5:	e8 20 ff ff ff       	callq  455a0a <_ZNSt5tupleIJPFviRiEiSt17reference_wrapperIiEEEC1IJRS1_S0_S4_ELb1ELb1EEEDpOT_>
  455aea:	90                   	nop
  455aeb:	48 83 c4 28          	add    $0x28,%rsp
  455aef:	5b                   	pop    %rbx
  455af0:	41 5c                	pop    %r12
  455af2:	41 5d                	pop    %r13
  455af4:	5d                   	pop    %rbp
  455af5:	c3                   	retq   

0000000000455af6 <_ZSt7forwardIRN2C22X4EEOT_RNSt16remove_referenceIS3_E4typeE>:
  455af6:	55                   	push   %rbp
  455af7:	48 89 e5             	mov    %rsp,%rbp
  455afa:	48 89 7d f8          	mov    %rdi,-0x8(%rbp)
  455afe:	48 8b 45 f8          	mov    -0x8(%rbp),%rax
  455b02:	5d                   	pop    %rbp
  455b03:	c3                   	retq   

0000000000455b04 <_ZNSt17reference_wrapperIN2C22X4EE6_S_funERS1_>:
  455b04:	55                   	push   %rbp
  455b05:	48 89 e5             	mov    %rsp,%rbp
  455b08:	48 83 ec 10          	sub    $0x10,%rsp
  455b0c:	48 89 7d f8          	mov    %rdi,-0x8(%rbp)
  455b10:	48 8b 45 f8          	mov    -0x8(%rbp),%rax
  455b14:	48 89 c7             	mov    %rax,%rdi
  455b17:	e8 fb 06 00 00       	callq  456217 <_ZSt11__addressofIN2C22X4EEPT_RS2_>
  455b1c:	c9                   	leaveq 
  455b1d:	c3                   	retq   

0000000000455b1e <_ZNSt5tupleIJMN2C22X4EFvvESt17reference_wrapperIS1_EEEC1IS3_S5_Lb1EEEOT_OT0_>:
  455b1e:	55                   	push   %rbp
  455b1f:	48 89 e5             	mov    %rsp,%rbp
  455b22:	41 54                	push   %r12
  455b24:	53                   	push   %rbx
  455b25:	48 83 ec 20          	sub    $0x20,%rsp
  455b29:	48 89 7d e8          	mov    %rdi,-0x18(%rbp)
  455b2d:	48 89 75 e0          	mov    %rsi,-0x20(%rbp)
  455b31:	48 89 55 d8          	mov    %rdx,-0x28(%rbp)
  455b35:	48 8b 5d e8          	mov    -0x18(%rbp),%rbx
  455b39:	48 8b 45 d8          	mov    -0x28(%rbp),%rax
  455b3d:	48 89 c7             	mov    %rax,%rdi
  455b40:	e8 8f f6 ff ff       	callq  4551d4 <_ZSt7forwardISt17reference_wrapperIN2C22X4EEEOT_RNSt16remove_referenceIS4_E4typeE>
  455b45:	49 89 c4             	mov    %rax,%r12
  455b48:	48 8b 45 e0          	mov    -0x20(%rbp),%rax
  455b4c:	48 89 c7             	mov    %rax,%rdi
  455b4f:	e8 72 f6 ff ff       	callq  4551c6 <_ZSt7forwardIMN2C22X4EFvvEEOT_RNSt16remove_referenceIS4_E4typeE>
  455b54:	4c 89 e2             	mov    %r12,%rdx
  455b57:	48 89 c6             	mov    %rax,%rsi
  455b5a:	48 89 df             	mov    %rbx,%rdi
  455b5d:	e8 c4 06 00 00       	callq  456226 <_ZNSt11_Tuple_implILm0EJMN2C22X4EFvvESt17reference_wrapperIS1_EEEC1IS3_JS5_EvEEOT_DpOT0_>
  455b62:	90                   	nop
  455b63:	48 83 c4 20          	add    $0x20,%rsp
  455b67:	5b                   	pop    %rbx
  455b68:	41 5c                	pop    %r12
  455b6a:	5d                   	pop    %rbp
  455b6b:	c3                   	retq   

0000000000455b6c <_ZNSt6thread11_State_implINS_8_InvokerISt5tupleIJMN2C22X4EFvvESt17reference_wrapperIS4_EEEEEEC1IJS6_S8_EEEDpOT_>:
  455b6c:	55                   	push   %rbp
  455b6d:	48 89 e5             	mov    %rsp,%rbp
  455b70:	41 54                	push   %r12
  455b72:	53                   	push   %rbx
  455b73:	48 83 ec 20          	sub    $0x20,%rsp
  455b77:	48 89 7d e8          	mov    %rdi,-0x18(%rbp)
  455b7b:	48 89 75 e0          	mov    %rsi,-0x20(%rbp)
  455b7f:	48 89 55 d8          	mov    %rdx,-0x28(%rbp)
  455b83:	48 8b 45 e8          	mov    -0x18(%rbp),%rax
  455b87:	48 89 c7             	mov    %rax,%rdi
  455b8a:	e8 8d fc ff ff       	callq  45581c <_ZNSt6thread6_StateC1Ev>
  455b8f:	ba 58 f2 46 00       	mov    $0x46f258,%edx
  455b94:	48 8b 45 e8          	mov    -0x18(%rbp),%rax
  455b98:	48 89 10             	mov    %rdx,(%rax)
  455b9b:	48 8b 45 e8          	mov    -0x18(%rbp),%rax
  455b9f:	48 8d 58 08          	lea    0x8(%rax),%rbx
  455ba3:	48 8b 45 e0          	mov    -0x20(%rbp),%rax
  455ba7:	48 89 c7             	mov    %rax,%rdi
  455baa:	e8 17 f6 ff ff       	callq  4551c6 <_ZSt7forwardIMN2C22X4EFvvEEOT_RNSt16remove_referenceIS4_E4typeE>
  455baf:	49 89 c4             	mov    %rax,%r12
  455bb2:	48 8b 45 d8          	mov    -0x28(%rbp),%rax
  455bb6:	48 89 c7             	mov    %rax,%rdi
  455bb9:	e8 16 f6 ff ff       	callq  4551d4 <_ZSt7forwardISt17reference_wrapperIN2C22X4EEEOT_RNSt16remove_referenceIS4_E4typeE>
  455bbe:	48 89 c2             	mov    %rax,%rdx
  455bc1:	4c 89 e6             	mov    %r12,%rsi
  455bc4:	48 89 df             	mov    %rbx,%rdi
  455bc7:	e8 52 ff ff ff       	callq  455b1e <_ZNSt5tupleIJMN2C22X4EFvvESt17reference_wrapperIS1_EEEC1IS3_S5_Lb1EEEOT_OT0_>
  455bcc:	90                   	nop
  455bcd:	48 83 c4 20          	add    $0x20,%rsp
  455bd1:	5b                   	pop    %rbx
  455bd2:	41 5c                	pop    %r12
  455bd4:	5d                   	pop    %rbp
  455bd5:	c3                   	retq   

0000000000455bd6 <_ZNKSt15__uniq_ptr_implIN2C27big_objESt14default_deleteIS1_EE6_M_ptrEv>:
  455bd6:	55                   	push   %rbp
  455bd7:	48 89 e5             	mov    %rsp,%rbp
  455bda:	48 83 ec 10          	sub    $0x10,%rsp
  455bde:	48 89 7d f8          	mov    %rdi,-0x8(%rbp)
  455be2:	48 8b 45 f8          	mov    -0x8(%rbp),%rax
  455be6:	48 89 c7             	mov    %rax,%rdi
  455be9:	e8 8e 06 00 00       	callq  45627c <_ZSt3getILm0EJPN2C27big_objESt14default_deleteIS1_EEERKNSt13tuple_elementIXT_ESt5tupleIJDpT0_EEE4typeERKS9_>
  455bee:	48 8b 00             	mov    (%rax),%rax
  455bf1:	c9                   	leaveq 
  455bf2:	c3                   	retq   
  455bf3:	90                   	nop

0000000000455bf4 <_ZNSt5tupleIJPN2C27big_objESt14default_deleteIS1_EEEC1ILb1ELb1EEEv>:
  455bf4:	55                   	push   %rbp
  455bf5:	48 89 e5             	mov    %rsp,%rbp
  455bf8:	48 83 ec 10          	sub    $0x10,%rsp
  455bfc:	48 89 7d f8          	mov    %rdi,-0x8(%rbp)
  455c00:	48 8b 45 f8          	mov    -0x8(%rbp),%rax
  455c04:	48 89 c7             	mov    %rax,%rdi
  455c07:	e8 8a 06 00 00       	callq  456296 <_ZNSt11_Tuple_implILm0EJPN2C27big_objESt14default_deleteIS1_EEEC1Ev>
  455c0c:	90                   	nop
  455c0d:	c9                   	leaveq 
  455c0e:	c3                   	retq   

0000000000455c0f <_ZSt3getILm0EJPN2C27big_objESt14default_deleteIS1_EEERNSt13tuple_elementIXT_ESt5tupleIJDpT0_EEE4typeERS9_>:
  455c0f:	55                   	push   %rbp
  455c10:	48 89 e5             	mov    %rsp,%rbp
  455c13:	48 83 ec 10          	sub    $0x10,%rsp
  455c17:	48 89 7d f8          	mov    %rdi,-0x8(%rbp)
  455c1b:	48 8b 45 f8          	mov    -0x8(%rbp),%rax
  455c1f:	48 89 c7             	mov    %rax,%rdi
  455c22:	e8 96 06 00 00       	callq  4562bd <_ZSt12__get_helperILm0EPN2C27big_objEJSt14default_deleteIS1_EEERT0_RSt11_Tuple_implIXT_EJS5_DpT1_EE>
  455c27:	c9                   	leaveq 
  455c28:	c3                   	retq   
  455c29:	90                   	nop

0000000000455c2a <_ZNSt15__uniq_ptr_implIN2C27big_objESt14default_deleteIS1_EE10_M_deleterEv>:
  455c2a:	55                   	push   %rbp
  455c2b:	48 89 e5             	mov    %rsp,%rbp
  455c2e:	48 83 ec 10          	sub    $0x10,%rsp
  455c32:	48 89 7d f8          	mov    %rdi,-0x8(%rbp)
  455c36:	48 8b 45 f8          	mov    -0x8(%rbp),%rax
  455c3a:	48 89 c7             	mov    %rax,%rdi
  455c3d:	e8 95 06 00 00       	callq  4562d7 <_ZSt3getILm1EJPN2C27big_objESt14default_deleteIS1_EEERNSt13tuple_elementIXT_ESt5tupleIJDpT0_EEE4typeERS9_>
  455c42:	c9                   	leaveq 
  455c43:	c3                   	retq   

0000000000455c44 <_ZNSt10_Head_baseILm1ESt10unique_ptrIN2C27big_objESt14default_deleteIS2_EELb0EED1Ev>:
  455c44:	55                   	push   %rbp
  455c45:	48 89 e5             	mov    %rsp,%rbp
  455c48:	48 83 ec 10          	sub    $0x10,%rsp
  455c4c:	48 89 7d f8          	mov    %rdi,-0x8(%rbp)
  455c50:	48 8b 45 f8          	mov    -0x8(%rbp),%rax
  455c54:	48 89 c7             	mov    %rax,%rdi
  455c57:	e8 6e ee ff ff       	callq  454aca <_ZNSt10unique_ptrIN2C27big_objESt14default_deleteIS1_EED1Ev>
  455c5c:	90                   	nop
  455c5d:	c9                   	leaveq 
  455c5e:	c3                   	retq   
  455c5f:	90                   	nop

0000000000455c60 <_ZNSt11_Tuple_implILm1EJSt10unique_ptrIN2C27big_objESt14default_deleteIS2_EEEED1Ev>:
  455c60:	55                   	push   %rbp
  455c61:	48 89 e5             	mov    %rsp,%rbp
  455c64:	48 83 ec 10          	sub    $0x10,%rsp
  455c68:	48 89 7d f8          	mov    %rdi,-0x8(%rbp)
  455c6c:	48 8b 45 f8          	mov    -0x8(%rbp),%rax
  455c70:	48 89 c7             	mov    %rax,%rdi
  455c73:	e8 cc ff ff ff       	callq  455c44 <_ZNSt10_Head_baseILm1ESt10unique_ptrIN2C27big_objESt14default_deleteIS2_EELb0EED1Ev>
  455c78:	90                   	nop
  455c79:	c9                   	leaveq 
  455c7a:	c3                   	retq   
  455c7b:	90                   	nop

0000000000455c7c <_ZNSt11_Tuple_implILm0EJPFvSt10unique_ptrIN2C27big_objESt14default_deleteIS2_EEES5_EED1Ev>:
  455c7c:	55                   	push   %rbp
  455c7d:	48 89 e5             	mov    %rsp,%rbp
  455c80:	48 83 ec 10          	sub    $0x10,%rsp
  455c84:	48 89 7d f8          	mov    %rdi,-0x8(%rbp)
  455c88:	48 8b 45 f8          	mov    -0x8(%rbp),%rax
  455c8c:	48 89 c7             	mov    %rax,%rdi
  455c8f:	e8 cc ff ff ff       	callq  455c60 <_ZNSt11_Tuple_implILm1EJSt10unique_ptrIN2C27big_objESt14default_deleteIS2_EEEED1Ev>
  455c94:	90                   	nop
  455c95:	c9                   	leaveq 
  455c96:	c3                   	retq   
  455c97:	90                   	nop

0000000000455c98 <_ZNSt5tupleIJPFvSt10unique_ptrIN2C27big_objESt14default_deleteIS2_EEES5_EED1Ev>:
  455c98:	55                   	push   %rbp
  455c99:	48 89 e5             	mov    %rsp,%rbp
  455c9c:	48 83 ec 10          	sub    $0x10,%rsp
  455ca0:	48 89 7d f8          	mov    %rdi,-0x8(%rbp)
  455ca4:	48 8b 45 f8          	mov    -0x8(%rbp),%rax
  455ca8:	48 89 c7             	mov    %rax,%rdi
  455cab:	e8 cc ff ff ff       	callq  455c7c <_ZNSt11_Tuple_implILm0EJPFvSt10unique_ptrIN2C27big_objESt14default_deleteIS2_EEES5_EED1Ev>
  455cb0:	90                   	nop
  455cb1:	c9                   	leaveq 
  455cb2:	c3                   	retq   
  455cb3:	90                   	nop

0000000000455cb4 <_ZNSt5tupleIJPFvSt10unique_ptrIN2C27big_objESt14default_deleteIS2_EEES5_EEC1IRS6_S5_Lb1EEEOT_OT0_>:
  455cb4:	55                   	push   %rbp
  455cb5:	48 89 e5             	mov    %rsp,%rbp
  455cb8:	41 54                	push   %r12
  455cba:	53                   	push   %rbx
  455cbb:	48 83 ec 20          	sub    $0x20,%rsp
  455cbf:	48 89 7d e8          	mov    %rdi,-0x18(%rbp)
  455cc3:	48 89 75 e0          	mov    %rsi,-0x20(%rbp)
  455cc7:	48 89 55 d8          	mov    %rdx,-0x28(%rbp)
  455ccb:	48 8b 5d e8          	mov    -0x18(%rbp),%rbx
  455ccf:	48 8b 45 d8          	mov    -0x28(%rbp),%rax
  455cd3:	48 89 c7             	mov    %rax,%rdi
  455cd6:	e8 5e f6 ff ff       	callq  455339 <_ZSt7forwardISt10unique_ptrIN2C27big_objESt14default_deleteIS2_EEEOT_RNSt16remove_referenceIS6_E4typeE>
  455cdb:	49 89 c4             	mov    %rax,%r12
  455cde:	48 8b 45 e0          	mov    -0x20(%rbp),%rax
  455ce2:	48 89 c7             	mov    %rax,%rdi
  455ce5:	e8 41 f6 ff ff       	callq  45532b <_ZSt7forwardIRFvSt10unique_ptrIN2C27big_objESt14default_deleteIS2_EEEEOT_RNSt16remove_referenceIS8_E4typeE>
  455cea:	4c 89 e2             	mov    %r12,%rdx
  455ced:	48 89 c6             	mov    %rax,%rsi
  455cf0:	48 89 df             	mov    %rbx,%rdi
  455cf3:	e8 fa 05 00 00       	callq  4562f2 <_ZNSt11_Tuple_implILm0EJPFvSt10unique_ptrIN2C27big_objESt14default_deleteIS2_EEES5_EEC1IRS6_JS5_EvEEOT_DpOT0_>
  455cf8:	90                   	nop
  455cf9:	48 83 c4 20          	add    $0x20,%rsp
  455cfd:	5b                   	pop    %rbx
  455cfe:	41 5c                	pop    %r12
  455d00:	5d                   	pop    %rbp
  455d01:	c3                   	retq   

0000000000455d02 <_ZNSt6thread8_InvokerISt5tupleIJPFvSt10unique_ptrIN2C27big_objESt14default_deleteIS4_EEES7_EEED1Ev>:
  455d02:	55                   	push   %rbp
  455d03:	48 89 e5             	mov    %rsp,%rbp
  455d06:	48 83 ec 10          	sub    $0x10,%rsp
  455d0a:	48 89 7d f8          	mov    %rdi,-0x8(%rbp)
  455d0e:	48 8b 45 f8          	mov    -0x8(%rbp),%rax
  455d12:	48 89 c7             	mov    %rax,%rdi
  455d15:	e8 7e ff ff ff       	callq  455c98 <_ZNSt5tupleIJPFvSt10unique_ptrIN2C27big_objESt14default_deleteIS2_EEES5_EED1Ev>
  455d1a:	90                   	nop
  455d1b:	c9                   	leaveq 
  455d1c:	c3                   	retq   
  455d1d:	90                   	nop

0000000000455d1e <_ZNSt6thread11_State_implINS_8_InvokerISt5tupleIJPFvSt10unique_ptrIN2C27big_objESt14default_deleteIS5_EEES8_EEEEEC1IJRS9_S8_EEEDpOT_>:
  455d1e:	55                   	push   %rbp
  455d1f:	48 89 e5             	mov    %rsp,%rbp
  455d22:	41 54                	push   %r12
  455d24:	53                   	push   %rbx
  455d25:	48 83 ec 20          	sub    $0x20,%rsp
  455d29:	48 89 7d e8          	mov    %rdi,-0x18(%rbp)
  455d2d:	48 89 75 e0          	mov    %rsi,-0x20(%rbp)
  455d31:	48 89 55 d8          	mov    %rdx,-0x28(%rbp)
  455d35:	48 8b 45 e8          	mov    -0x18(%rbp),%rax
  455d39:	48 89 c7             	mov    %rax,%rdi
  455d3c:	e8 db fa ff ff       	callq  45581c <_ZNSt6thread6_StateC1Ev>
  455d41:	ba 30 f2 46 00       	mov    $0x46f230,%edx
  455d46:	48 8b 45 e8          	mov    -0x18(%rbp),%rax
  455d4a:	48 89 10             	mov    %rdx,(%rax)
  455d4d:	48 8b 45 e8          	mov    -0x18(%rbp),%rax
  455d51:	48 8d 58 08          	lea    0x8(%rax),%rbx
  455d55:	48 8b 45 e0          	mov    -0x20(%rbp),%rax
  455d59:	48 89 c7             	mov    %rax,%rdi
  455d5c:	e8 ca f5 ff ff       	callq  45532b <_ZSt7forwardIRFvSt10unique_ptrIN2C27big_objESt14default_deleteIS2_EEEEOT_RNSt16remove_referenceIS8_E4typeE>
  455d61:	49 89 c4             	mov    %rax,%r12
  455d64:	48 8b 45 d8          	mov    -0x28(%rbp),%rax
  455d68:	48 89 c7             	mov    %rax,%rdi
  455d6b:	e8 c9 f5 ff ff       	callq  455339 <_ZSt7forwardISt10unique_ptrIN2C27big_objESt14default_deleteIS2_EEEOT_RNSt16remove_referenceIS6_E4typeE>
  455d70:	48 89 c2             	mov    %rax,%rdx
  455d73:	4c 89 e6             	mov    %r12,%rsi
  455d76:	48 89 df             	mov    %rbx,%rdi
  455d79:	e8 36 ff ff ff       	callq  455cb4 <_ZNSt5tupleIJPFvSt10unique_ptrIN2C27big_objESt14default_deleteIS2_EEES5_EEC1IRS6_S5_Lb1EEEOT_OT0_>
  455d7e:	90                   	nop
  455d7f:	48 83 c4 20          	add    $0x20,%rsp
  455d83:	5b                   	pop    %rbx
  455d84:	41 5c                	pop    %r12
  455d86:	5d                   	pop    %rbp
  455d87:	c3                   	retq   

0000000000455d88 <_ZNSt5tupleIJN2C215background_taskEEEC1IJS1_ELb1ELb1EEEDpOT_>:
  455d88:	55                   	push   %rbp
  455d89:	48 89 e5             	mov    %rsp,%rbp
  455d8c:	53                   	push   %rbx
  455d8d:	48 83 ec 18          	sub    $0x18,%rsp
  455d91:	48 89 7d e8          	mov    %rdi,-0x18(%rbp)
  455d95:	48 89 75 e0          	mov    %rsi,-0x20(%rbp)
  455d99:	48 8b 5d e8          	mov    -0x18(%rbp),%rbx
  455d9d:	48 8b 45 e0          	mov    -0x20(%rbp),%rax
  455da1:	48 89 c7             	mov    %rax,%rdi
  455da4:	e8 2a f6 ff ff       	callq  4553d3 <_ZSt7forwardIN2C215background_taskEEOT_RNSt16remove_referenceIS2_E4typeE>
  455da9:	48 89 c6             	mov    %rax,%rsi
  455dac:	48 89 df             	mov    %rbx,%rdi
  455daf:	e8 9c 05 00 00       	callq  456350 <_ZNSt11_Tuple_implILm0EJN2C215background_taskEEEC1IS1_EEOT_>
  455db4:	90                   	nop
  455db5:	48 8b 5d f8          	mov    -0x8(%rbp),%rbx
  455db9:	c9                   	leaveq 
  455dba:	c3                   	retq   
  455dbb:	90                   	nop

0000000000455dbc <_ZNSt6thread11_State_implINS_8_InvokerISt5tupleIJN2C215background_taskEEEEEEC1IJS4_EEEDpOT_>:
  455dbc:	55                   	push   %rbp
  455dbd:	48 89 e5             	mov    %rsp,%rbp
  455dc0:	53                   	push   %rbx
  455dc1:	48 83 ec 18          	sub    $0x18,%rsp
  455dc5:	48 89 7d e8          	mov    %rdi,-0x18(%rbp)
  455dc9:	48 89 75 e0          	mov    %rsi,-0x20(%rbp)
  455dcd:	48 8b 45 e8          	mov    -0x18(%rbp),%rax
  455dd1:	48 89 c7             	mov    %rax,%rdi
  455dd4:	e8 43 fa ff ff       	callq  45581c <_ZNSt6thread6_StateC1Ev>
  455dd9:	ba a8 f2 46 00       	mov    $0x46f2a8,%edx
  455dde:	48 8b 45 e8          	mov    -0x18(%rbp),%rax
  455de2:	48 89 10             	mov    %rdx,(%rax)
  455de5:	48 8b 45 e8          	mov    -0x18(%rbp),%rax
  455de9:	48 8d 58 08          	lea    0x8(%rax),%rbx
  455ded:	48 8b 45 e0          	mov    -0x20(%rbp),%rax
  455df1:	48 89 c7             	mov    %rax,%rdi
  455df4:	e8 da f5 ff ff       	callq  4553d3 <_ZSt7forwardIN2C215background_taskEEOT_RNSt16remove_referenceIS2_E4typeE>
  455df9:	48 89 c6             	mov    %rax,%rsi
  455dfc:	48 89 df             	mov    %rbx,%rdi
  455dff:	e8 84 ff ff ff       	callq  455d88 <_ZNSt5tupleIJN2C215background_taskEEEC1IJS1_ELb1ELb1EEEDpOT_>
  455e04:	90                   	nop
  455e05:	48 8b 5d f8          	mov    -0x8(%rbp),%rbx
  455e09:	c9                   	leaveq 
  455e0a:	c3                   	retq   
  455e0b:	90                   	nop

0000000000455e0c <_ZN9__gnu_cxx13new_allocatorISt6threadEC1Ev>:
  455e0c:	55                   	push   %rbp
  455e0d:	48 89 e5             	mov    %rsp,%rbp
  455e10:	48 89 7d f8          	mov    %rdi,-0x8(%rbp)
  455e14:	90                   	nop
  455e15:	5d                   	pop    %rbp
  455e16:	c3                   	retq   

0000000000455e17 <_ZNSt16allocator_traitsISaISt6threadEE10deallocateERS1_PS0_m>:
  455e17:	55                   	push   %rbp
  455e18:	48 89 e5             	mov    %rsp,%rbp
  455e1b:	48 83 ec 20          	sub    $0x20,%rsp
  455e1f:	48 89 7d f8          	mov    %rdi,-0x8(%rbp)
  455e23:	48 89 75 f0          	mov    %rsi,-0x10(%rbp)
  455e27:	48 89 55 e8          	mov    %rdx,-0x18(%rbp)
  455e2b:	48 8b 55 e8          	mov    -0x18(%rbp),%rdx
  455e2f:	48 8b 4d f0          	mov    -0x10(%rbp),%rcx
  455e33:	48 8b 45 f8          	mov    -0x8(%rbp),%rax
  455e37:	48 89 ce             	mov    %rcx,%rsi
  455e3a:	48 89 c7             	mov    %rax,%rdi
  455e3d:	e8 42 05 00 00       	callq  456384 <_ZN9__gnu_cxx13new_allocatorISt6threadE10deallocateEPS1_m>
  455e42:	90                   	nop
  455e43:	c9                   	leaveq 
  455e44:	c3                   	retq   

0000000000455e45 <_ZSt8_DestroyIPSt6threadEvT_S2_>:
  455e45:	55                   	push   %rbp
  455e46:	48 89 e5             	mov    %rsp,%rbp
  455e49:	48 83 ec 10          	sub    $0x10,%rsp
  455e4d:	48 89 7d f8          	mov    %rdi,-0x8(%rbp)
  455e51:	48 89 75 f0          	mov    %rsi,-0x10(%rbp)
  455e55:	48 8b 55 f0          	mov    -0x10(%rbp),%rdx
  455e59:	48 8b 45 f8          	mov    -0x8(%rbp),%rax
  455e5d:	48 89 d6             	mov    %rdx,%rsi
  455e60:	48 89 c7             	mov    %rax,%rdi
  455e63:	e8 4d 05 00 00       	callq  4563b5 <_ZNSt12_Destroy_auxILb0EE9__destroyIPSt6threadEEvT_S4_>
  455e68:	90                   	nop
  455e69:	c9                   	leaveq 
  455e6a:	c3                   	retq   
  455e6b:	90                   	nop

0000000000455e6c <_ZN9__gnu_cxx13new_allocatorISt6threadE9constructIS1_JRFvjERjEEEvPT_DpOT0_>:
  455e6c:	55                   	push   %rbp
  455e6d:	48 89 e5             	mov    %rsp,%rbp
  455e70:	41 56                	push   %r14
  455e72:	41 55                	push   %r13
  455e74:	41 54                	push   %r12
  455e76:	53                   	push   %rbx
  455e77:	48 83 ec 20          	sub    $0x20,%rsp
  455e7b:	48 89 7d d8          	mov    %rdi,-0x28(%rbp)
  455e7f:	48 89 75 d0          	mov    %rsi,-0x30(%rbp)
  455e83:	48 89 55 c8          	mov    %rdx,-0x38(%rbp)
  455e87:	48 89 4d c0          	mov    %rcx,-0x40(%rbp)
  455e8b:	48 8b 45 c8          	mov    -0x38(%rbp),%rax
  455e8f:	48 89 c7             	mov    %rax,%rdi
  455e92:	e8 7f f6 ff ff       	callq  455516 <_ZSt7forwardIRFvjEEOT_RNSt16remove_referenceIS2_E4typeE>
  455e97:	49 89 c5             	mov    %rax,%r13
  455e9a:	48 8b 45 c0          	mov    -0x40(%rbp),%rax
  455e9e:	48 89 c7             	mov    %rax,%rdi
  455ea1:	e8 7e f6 ff ff       	callq  455524 <_ZSt7forwardIRjEOT_RNSt16remove_referenceIS1_E4typeE>
  455ea6:	49 89 c6             	mov    %rax,%r14
  455ea9:	48 8b 5d d0          	mov    -0x30(%rbp),%rbx
  455ead:	48 89 de             	mov    %rbx,%rsi
  455eb0:	bf 08 00 00 00       	mov    $0x8,%edi
  455eb5:	e8 24 e3 ff ff       	callq  4541de <_ZnwmPv>
  455eba:	49 89 c4             	mov    %rax,%r12
  455ebd:	4c 89 f2             	mov    %r14,%rdx
  455ec0:	4c 89 ee             	mov    %r13,%rsi
  455ec3:	4c 89 e7             	mov    %r12,%rdi
  455ec6:	e8 23 05 00 00       	callq  4563ee <_ZNSt6threadC1IRFvjEJRjEvEEOT_DpOT0_>
  455ecb:	eb 19                	jmp    455ee6 <_ZN9__gnu_cxx13new_allocatorISt6threadE9constructIS1_JRFvjERjEEEvPT_DpOT0_+0x7a>
  455ecd:	49 89 c5             	mov    %rax,%r13
  455ed0:	48 89 de             	mov    %rbx,%rsi
  455ed3:	4c 89 e7             	mov    %r12,%rdi
  455ed6:	e8 15 e3 ff ff       	callq  4541f0 <_ZdlPvS_>
  455edb:	4c 89 e8             	mov    %r13,%rax
  455ede:	48 89 c7             	mov    %rax,%rdi
  455ee1:	e8 ba d6 ff ff       	callq  4535a0 <_Unwind_Resume@plt>
  455ee6:	48 83 c4 20          	add    $0x20,%rsp
  455eea:	5b                   	pop    %rbx
  455eeb:	41 5c                	pop    %r12
  455eed:	41 5d                	pop    %r13
  455eef:	41 5e                	pop    %r14
  455ef1:	5d                   	pop    %rbp
  455ef2:	c3                   	retq   
  455ef3:	90                   	nop

0000000000455ef4 <_ZNKSt6vectorISt6threadSaIS0_EE12_M_check_lenEmPKc>:
  455ef4:	55                   	push   %rbp
  455ef5:	48 89 e5             	mov    %rsp,%rbp
  455ef8:	53                   	push   %rbx
  455ef9:	48 83 ec 38          	sub    $0x38,%rsp
  455efd:	48 89 7d d8          	mov    %rdi,-0x28(%rbp)
  455f01:	48 89 75 d0          	mov    %rsi,-0x30(%rbp)
  455f05:	48 89 55 c8          	mov    %rdx,-0x38(%rbp)
  455f09:	48 8b 45 d8          	mov    -0x28(%rbp),%rax
  455f0d:	48 89 c7             	mov    %rax,%rdi
  455f10:	e8 77 05 00 00       	callq  45648c <_ZNKSt6vectorISt6threadSaIS0_EE8max_sizeEv>
  455f15:	48 89 c3             	mov    %rax,%rbx
  455f18:	48 8b 45 d8          	mov    -0x28(%rbp),%rax
  455f1c:	48 89 c7             	mov    %rax,%rdi
  455f1f:	e8 8a 05 00 00       	callq  4564ae <_ZNKSt6vectorISt6threadSaIS0_EE4sizeEv>
  455f24:	48 29 c3             	sub    %rax,%rbx
  455f27:	48 89 da             	mov    %rbx,%rdx
  455f2a:	48 8b 45 d0          	mov    -0x30(%rbp),%rax
  455f2e:	48 39 c2             	cmp    %rax,%rdx
  455f31:	0f 92 c0             	setb   %al
  455f34:	84 c0                	test   %al,%al
  455f36:	74 0c                	je     455f44 <_ZNKSt6vectorISt6threadSaIS0_EE12_M_check_lenEmPKc+0x50>
  455f38:	48 8b 45 c8          	mov    -0x38(%rbp),%rax
  455f3c:	48 89 c7             	mov    %rax,%rdi
  455f3f:	e8 7c d2 ff ff       	callq  4531c0 <_ZSt20__throw_length_errorPKc@plt>
  455f44:	48 8b 45 d8          	mov    -0x28(%rbp),%rax
  455f48:	48 89 c7             	mov    %rax,%rdi
  455f4b:	e8 5e 05 00 00       	callq  4564ae <_ZNKSt6vectorISt6threadSaIS0_EE4sizeEv>
  455f50:	48 89 c3             	mov    %rax,%rbx
  455f53:	48 8b 45 d8          	mov    -0x28(%rbp),%rax
  455f57:	48 89 c7             	mov    %rax,%rdi
  455f5a:	e8 4f 05 00 00       	callq  4564ae <_ZNKSt6vectorISt6threadSaIS0_EE4sizeEv>
  455f5f:	48 89 45 e0          	mov    %rax,-0x20(%rbp)
  455f63:	48 8d 55 d0          	lea    -0x30(%rbp),%rdx
  455f67:	48 8d 45 e0          	lea    -0x20(%rbp),%rax
  455f6b:	48 89 d6             	mov    %rdx,%rsi
  455f6e:	48 89 c7             	mov    %rax,%rdi
  455f71:	e8 5b 05 00 00       	callq  4564d1 <_ZSt3maxImERKT_S2_S2_>
  455f76:	48 8b 00             	mov    (%rax),%rax
  455f79:	48 01 d8             	add    %rbx,%rax
  455f7c:	48 89 45 e8          	mov    %rax,-0x18(%rbp)
  455f80:	48 8b 45 d8          	mov    -0x28(%rbp),%rax
  455f84:	48 89 c7             	mov    %rax,%rdi
  455f87:	e8 22 05 00 00       	callq  4564ae <_ZNKSt6vectorISt6threadSaIS0_EE4sizeEv>
  455f8c:	48 39 45 e8          	cmp    %rax,-0x18(%rbp)
  455f90:	72 12                	jb     455fa4 <_ZNKSt6vectorISt6threadSaIS0_EE12_M_check_lenEmPKc+0xb0>
  455f92:	48 8b 45 d8          	mov    -0x28(%rbp),%rax
  455f96:	48 89 c7             	mov    %rax,%rdi
  455f99:	e8 ee 04 00 00       	callq  45648c <_ZNKSt6vectorISt6threadSaIS0_EE8max_sizeEv>
  455f9e:	48 39 45 e8          	cmp    %rax,-0x18(%rbp)
  455fa2:	76 0e                	jbe    455fb2 <_ZNKSt6vectorISt6threadSaIS0_EE12_M_check_lenEmPKc+0xbe>
  455fa4:	48 8b 45 d8          	mov    -0x28(%rbp),%rax
  455fa8:	48 89 c7             	mov    %rax,%rdi
  455fab:	e8 dc 04 00 00       	callq  45648c <_ZNKSt6vectorISt6threadSaIS0_EE8max_sizeEv>
  455fb0:	eb 04                	jmp    455fb6 <_ZNKSt6vectorISt6threadSaIS0_EE12_M_check_lenEmPKc+0xc2>
  455fb2:	48 8b 45 e8          	mov    -0x18(%rbp),%rax
  455fb6:	48 8b 5d f8          	mov    -0x8(%rbp),%rbx
  455fba:	c9                   	leaveq 
  455fbb:	c3                   	retq   

0000000000455fbc <_ZN9__gnu_cxxmiIPSt6threadSt6vectorIS1_SaIS1_EEEENS_17__normal_iteratorIT_T0_E15difference_typeERKS9_SC_>:
  455fbc:	55                   	push   %rbp
  455fbd:	48 89 e5             	mov    %rsp,%rbp
  455fc0:	53                   	push   %rbx
  455fc1:	48 83 ec 18          	sub    $0x18,%rsp
  455fc5:	48 89 7d e8          	mov    %rdi,-0x18(%rbp)
  455fc9:	48 89 75 e0          	mov    %rsi,-0x20(%rbp)
  455fcd:	48 8b 45 e8          	mov    -0x18(%rbp),%rax
  455fd1:	48 89 c7             	mov    %rax,%rdi
  455fd4:	e8 35 f8 ff ff       	callq  45580e <_ZNK9__gnu_cxx17__normal_iteratorIPSt6threadSt6vectorIS1_SaIS1_EEE4baseEv>
  455fd9:	48 8b 18             	mov    (%rax),%rbx
  455fdc:	48 8b 45 e0          	mov    -0x20(%rbp),%rax
  455fe0:	48 89 c7             	mov    %rax,%rdi
  455fe3:	e8 26 f8 ff ff       	callq  45580e <_ZNK9__gnu_cxx17__normal_iteratorIPSt6threadSt6vectorIS1_SaIS1_EEE4baseEv>
  455fe8:	48 8b 10             	mov    (%rax),%rdx
  455feb:	48 89 d8             	mov    %rbx,%rax
  455fee:	48 29 d0             	sub    %rdx,%rax
  455ff1:	48 c1 f8 03          	sar    $0x3,%rax
  455ff5:	48 8b 5d f8          	mov    -0x8(%rbp),%rbx
  455ff9:	c9                   	leaveq 
  455ffa:	c3                   	retq   
  455ffb:	90                   	nop

0000000000455ffc <_ZNSt12_Vector_baseISt6threadSaIS0_EE11_M_allocateEm>:
  455ffc:	55                   	push   %rbp
  455ffd:	48 89 e5             	mov    %rsp,%rbp
  456000:	48 83 ec 10          	sub    $0x10,%rsp
  456004:	48 89 7d f8          	mov    %rdi,-0x8(%rbp)
  456008:	48 89 75 f0          	mov    %rsi,-0x10(%rbp)
  45600c:	48 83 7d f0 00       	cmpq   $0x0,-0x10(%rbp)
  456011:	74 15                	je     456028 <_ZNSt12_Vector_baseISt6threadSaIS0_EE11_M_allocateEm+0x2c>
  456013:	48 8b 45 f8          	mov    -0x8(%rbp),%rax
  456017:	48 8b 55 f0          	mov    -0x10(%rbp),%rdx
  45601b:	48 89 d6             	mov    %rdx,%rsi
  45601e:	48 89 c7             	mov    %rax,%rdi
  456021:	e8 d6 04 00 00       	callq  4564fc <_ZNSt16allocator_traitsISaISt6threadEE8allocateERS1_m>
  456026:	eb 05                	jmp    45602d <_ZNSt12_Vector_baseISt6threadSaIS0_EE11_M_allocateEm+0x31>
  456028:	b8 00 00 00 00       	mov    $0x0,%eax
  45602d:	c9                   	leaveq 
  45602e:	c3                   	retq   

000000000045602f <_ZNSt6vectorISt6threadSaIS0_EE11_S_relocateEPS0_S3_S3_RS1_>:
  45602f:	55                   	push   %rbp
  456030:	48 89 e5             	mov    %rsp,%rbp
  456033:	48 83 ec 20          	sub    $0x20,%rsp
  456037:	48 89 7d f8          	mov    %rdi,-0x8(%rbp)
  45603b:	48 89 75 f0          	mov    %rsi,-0x10(%rbp)
  45603f:	48 89 55 e8          	mov    %rdx,-0x18(%rbp)
  456043:	48 89 4d e0          	mov    %rcx,-0x20(%rbp)
  456047:	48 8b 4d e0          	mov    -0x20(%rbp),%rcx
  45604b:	48 8b 55 e8          	mov    -0x18(%rbp),%rdx
  45604f:	48 8b 75 f0          	mov    -0x10(%rbp),%rsi
  456053:	48 8b 45 f8          	mov    -0x8(%rbp),%rax
  456057:	48 89 c7             	mov    %rax,%rdi
  45605a:	e8 c7 04 00 00       	callq  456526 <_ZNSt6vectorISt6threadSaIS0_EE14_S_do_relocateEPS0_S3_S3_RS1_St17integral_constantIbLb1EE>
  45605f:	c9                   	leaveq 
  456060:	c3                   	retq   

0000000000456061 <_ZNSt16allocator_traitsISaISt6threadEE7destroyIS0_EEvRS1_PT_>:
  456061:	55                   	push   %rbp
  456062:	48 89 e5             	mov    %rsp,%rbp
  456065:	48 83 ec 10          	sub    $0x10,%rsp
  456069:	48 89 7d f8          	mov    %rdi,-0x8(%rbp)
  45606d:	48 89 75 f0          	mov    %rsi,-0x10(%rbp)
  456071:	48 8b 55 f0          	mov    -0x10(%rbp),%rdx
  456075:	48 8b 45 f8          	mov    -0x8(%rbp),%rax
  456079:	48 89 d6             	mov    %rdx,%rsi
  45607c:	48 89 c7             	mov    %rax,%rdi
  45607f:	e8 d4 04 00 00       	callq  456558 <_ZN9__gnu_cxx13new_allocatorISt6threadE7destroyIS1_EEvPT_>
  456084:	90                   	nop
  456085:	c9                   	leaveq 
  456086:	c3                   	retq   
  456087:	90                   	nop

0000000000456088 <_ZNK9__gnu_cxx17__normal_iteratorIPSt6threadSt6vectorIS1_SaIS1_EEEmiEl>:
  456088:	55                   	push   %rbp
  456089:	48 89 e5             	mov    %rsp,%rbp
  45608c:	48 83 ec 20          	sub    $0x20,%rsp
  456090:	48 89 7d e8          	mov    %rdi,-0x18(%rbp)
  456094:	48 89 75 e0          	mov    %rsi,-0x20(%rbp)
  456098:	48 8b 45 e8          	mov    -0x18(%rbp),%rax
  45609c:	48 8b 10             	mov    (%rax),%rdx
  45609f:	48 8b 45 e0          	mov    -0x20(%rbp),%rax
  4560a3:	48 c1 e0 03          	shl    $0x3,%rax
  4560a7:	48 f7 d8             	neg    %rax
  4560aa:	48 01 d0             	add    %rdx,%rax
  4560ad:	48 89 45 f8          	mov    %rax,-0x8(%rbp)
  4560b1:	48 8d 55 f8          	lea    -0x8(%rbp),%rdx
  4560b5:	48 8d 45 f0          	lea    -0x10(%rbp),%rax
  4560b9:	48 89 d6             	mov    %rdx,%rsi
  4560bc:	48 89 c7             	mov    %rax,%rdi
  4560bf:	e8 2c f7 ff ff       	callq  4557f0 <_ZN9__gnu_cxx17__normal_iteratorIPSt6threadSt6vectorIS1_SaIS1_EEEC1ERKS2_>
  4560c4:	48 8b 45 f0          	mov    -0x10(%rbp),%rax
  4560c8:	c9                   	leaveq 
  4560c9:	c3                   	retq   

00000000004560ca <_ZNSt11_Tuple_implILm0EJPFvvEEEC1ERKS1_>:
  4560ca:	55                   	push   %rbp
  4560cb:	48 89 e5             	mov    %rsp,%rbp
  4560ce:	48 83 ec 10          	sub    $0x10,%rsp
  4560d2:	48 89 7d f8          	mov    %rdi,-0x8(%rbp)
  4560d6:	48 89 75 f0          	mov    %rsi,-0x10(%rbp)
  4560da:	48 8b 45 f8          	mov    -0x8(%rbp),%rax
  4560de:	48 8b 55 f0          	mov    -0x10(%rbp),%rdx
  4560e2:	48 89 d6             	mov    %rdx,%rsi
  4560e5:	48 89 c7             	mov    %rax,%rdi
  4560e8:	e8 8b 04 00 00       	callq  456578 <_ZNSt10_Head_baseILm0EPFvvELb0EEC1ERKS1_>
  4560ed:	90                   	nop
  4560ee:	c9                   	leaveq 
  4560ef:	c3                   	retq   

00000000004560f0 <_ZNSt15__uniq_ptr_implINSt6thread6_StateESt14default_deleteIS1_EEC1EPS1_>:
  4560f0:	55                   	push   %rbp
  4560f1:	48 89 e5             	mov    %rsp,%rbp
  4560f4:	53                   	push   %rbx
  4560f5:	48 83 ec 18          	sub    $0x18,%rsp
  4560f9:	48 89 7d e8          	mov    %rdi,-0x18(%rbp)
  4560fd:	48 89 75 e0          	mov    %rsi,-0x20(%rbp)
  456101:	48 8b 45 e8          	mov    -0x18(%rbp),%rax
  456105:	48 89 c7             	mov    %rax,%rdi
  456108:	e8 89 04 00 00       	callq  456596 <_ZNSt5tupleIJPNSt6thread6_StateESt14default_deleteIS1_EEEC1ILb1ELb1EEEv>
  45610d:	48 8b 5d e0          	mov    -0x20(%rbp),%rbx
  456111:	48 8b 45 e8          	mov    -0x18(%rbp),%rax
  456115:	48 89 c7             	mov    %rax,%rdi
  456118:	e8 e1 f7 ff ff       	callq  4558fe <_ZNSt15__uniq_ptr_implINSt6thread6_StateESt14default_deleteIS1_EE6_M_ptrEv>
  45611d:	48 89 18             	mov    %rbx,(%rax)
  456120:	90                   	nop
  456121:	48 8b 5d f8          	mov    -0x8(%rbp),%rbx
  456125:	c9                   	leaveq 
  456126:	c3                   	retq   

0000000000456127 <_ZSt3getILm0EJPNSt6thread6_StateESt14default_deleteIS1_EEERNSt13tuple_elementIXT_ESt5tupleIJDpT0_EEE4typeERS9_>:
  456127:	55                   	push   %rbp
  456128:	48 89 e5             	mov    %rsp,%rbp
  45612b:	48 83 ec 10          	sub    $0x10,%rsp
  45612f:	48 89 7d f8          	mov    %rdi,-0x8(%rbp)
  456133:	48 8b 45 f8          	mov    -0x8(%rbp),%rax
  456137:	48 89 c7             	mov    %rax,%rdi
  45613a:	e8 72 04 00 00       	callq  4565b1 <_ZSt12__get_helperILm0EPNSt6thread6_StateEJSt14default_deleteIS1_EEERT0_RSt11_Tuple_implIXT_EJS5_DpT1_EE>
  45613f:	c9                   	leaveq 
  456140:	c3                   	retq   
  456141:	90                   	nop

0000000000456142 <_ZNSt15__uniq_ptr_implINSt6thread6_StateESt14default_deleteIS1_EE10_M_deleterEv>:
  456142:	55                   	push   %rbp
  456143:	48 89 e5             	mov    %rsp,%rbp
  456146:	48 83 ec 10          	sub    $0x10,%rsp
  45614a:	48 89 7d f8          	mov    %rdi,-0x8(%rbp)
  45614e:	48 8b 45 f8          	mov    -0x8(%rbp),%rax
  456152:	48 89 c7             	mov    %rax,%rdi
  456155:	e8 71 04 00 00       	callq  4565cb <_ZSt3getILm1EJPNSt6thread6_StateESt14default_deleteIS1_EEERNSt13tuple_elementIXT_ESt5tupleIJDpT0_EEE4typeERS9_>
  45615a:	c9                   	leaveq 
  45615b:	c3                   	retq   

000000000045615c <_ZNSt11_Tuple_implILm0EJN2C215background_taskEEEC1IRS1_EEOT_>:
  45615c:	55                   	push   %rbp
  45615d:	48 89 e5             	mov    %rsp,%rbp
  456160:	53                   	push   %rbx
  456161:	48 83 ec 18          	sub    $0x18,%rsp
  456165:	48 89 7d e8          	mov    %rdi,-0x18(%rbp)
  456169:	48 89 75 e0          	mov    %rsi,-0x20(%rbp)
  45616d:	48 8b 5d e8          	mov    -0x18(%rbp),%rbx
  456171:	48 8b 45 e0          	mov    -0x20(%rbp),%rax
  456175:	48 89 c7             	mov    %rax,%rdi
  456178:	e8 9d ee ff ff       	callq  45501a <_ZSt7forwardIRN2C215background_taskEEOT_RNSt16remove_referenceIS3_E4typeE>
  45617d:	48 89 c6             	mov    %rax,%rsi
  456180:	48 89 df             	mov    %rbx,%rdi
  456183:	e8 5e 04 00 00       	callq  4565e6 <_ZNSt10_Head_baseILm0EN2C215background_taskELb0EEC1IRS1_EEOT_>
  456188:	90                   	nop
  456189:	48 8b 5d f8          	mov    -0x8(%rbp),%rbx
  45618d:	c9                   	leaveq 
  45618e:	c3                   	retq   

000000000045618f <_ZSt11__addressofIiEPT_RS0_>:
  45618f:	55                   	push   %rbp
  456190:	48 89 e5             	mov    %rsp,%rbp
  456193:	48 89 7d f8          	mov    %rdi,-0x8(%rbp)
  456197:	48 8b 45 f8          	mov    -0x8(%rbp),%rax
  45619b:	5d                   	pop    %rbp
  45619c:	c3                   	retq   
  45619d:	90                   	nop

000000000045619e <_ZNSt11_Tuple_implILm0EJPFviRiEiSt17reference_wrapperIiEEEC1IRS1_JS0_S4_EvEEOT_DpOT0_>:
  45619e:	55                   	push   %rbp
  45619f:	48 89 e5             	mov    %rsp,%rbp
  4561a2:	41 54                	push   %r12
  4561a4:	53                   	push   %rbx
  4561a5:	48 83 ec 30          	sub    $0x30,%rsp
  4561a9:	48 89 7d d8          	mov    %rdi,-0x28(%rbp)
  4561ad:	48 89 75 d0          	mov    %rsi,-0x30(%rbp)
  4561b1:	48 89 55 c8          	mov    %rdx,-0x38(%rbp)
  4561b5:	48 89 4d c0          	mov    %rcx,-0x40(%rbp)
  4561b9:	48 8b 5d d8          	mov    -0x28(%rbp),%rbx
  4561bd:	48 8b 45 c0          	mov    -0x40(%rbp),%rax
  4561c1:	48 89 c7             	mov    %rax,%rdi
  4561c4:	e8 1b ef ff ff       	callq  4550e4 <_ZSt7forwardISt17reference_wrapperIiEEOT_RNSt16remove_referenceIS2_E4typeE>
  4561c9:	49 89 c4             	mov    %rax,%r12
  4561cc:	48 8b 45 c8          	mov    -0x38(%rbp),%rax
  4561d0:	48 89 c7             	mov    %rax,%rdi
  4561d3:	e8 fe ee ff ff       	callq  4550d6 <_ZSt7forwardIRiEOT_RNSt16remove_referenceIS1_E4typeE>
  4561d8:	4c 89 e2             	mov    %r12,%rdx
  4561db:	48 89 c6             	mov    %rax,%rsi
  4561de:	48 89 df             	mov    %rbx,%rdi
  4561e1:	e8 2a 04 00 00       	callq  456610 <_ZNSt11_Tuple_implILm1EJiSt17reference_wrapperIiEEEC1IRiJS1_EvEEOT_DpOT0_>
  4561e6:	48 8b 45 d8          	mov    -0x28(%rbp),%rax
  4561ea:	48 8d 58 10          	lea    0x10(%rax),%rbx
  4561ee:	48 8b 45 d0          	mov    -0x30(%rbp),%rax
  4561f2:	48 89 c7             	mov    %rax,%rdi
  4561f5:	e8 ce ee ff ff       	callq  4550c8 <_ZSt7forwardIRFviRiEEOT_RNSt16remove_referenceIS3_E4typeE>
  4561fa:	48 89 45 e8          	mov    %rax,-0x18(%rbp)
  4561fe:	48 8d 45 e8          	lea    -0x18(%rbp),%rax
  456202:	48 89 c6             	mov    %rax,%rsi
  456205:	48 89 df             	mov    %rbx,%rdi
  456208:	e8 59 04 00 00       	callq  456666 <_ZNSt10_Head_baseILm0EPFviRiELb0EEC1ERKS2_>
  45620d:	90                   	nop
  45620e:	48 83 c4 30          	add    $0x30,%rsp
  456212:	5b                   	pop    %rbx
  456213:	41 5c                	pop    %r12
  456215:	5d                   	pop    %rbp
  456216:	c3                   	retq   

0000000000456217 <_ZSt11__addressofIN2C22X4EEPT_RS2_>:
  456217:	55                   	push   %rbp
  456218:	48 89 e5             	mov    %rsp,%rbp
  45621b:	48 89 7d f8          	mov    %rdi,-0x8(%rbp)
  45621f:	48 8b 45 f8          	mov    -0x8(%rbp),%rax
  456223:	5d                   	pop    %rbp
  456224:	c3                   	retq   
  456225:	90                   	nop

0000000000456226 <_ZNSt11_Tuple_implILm0EJMN2C22X4EFvvESt17reference_wrapperIS1_EEEC1IS3_JS5_EvEEOT_DpOT0_>:
  456226:	55                   	push   %rbp
  456227:	48 89 e5             	mov    %rsp,%rbp
  45622a:	53                   	push   %rbx
  45622b:	48 83 ec 28          	sub    $0x28,%rsp
  45622f:	48 89 7d e8          	mov    %rdi,-0x18(%rbp)
  456233:	48 89 75 e0          	mov    %rsi,-0x20(%rbp)
  456237:	48 89 55 d8          	mov    %rdx,-0x28(%rbp)
  45623b:	48 8b 5d e8          	mov    -0x18(%rbp),%rbx
  45623f:	48 8b 45 d8          	mov    -0x28(%rbp),%rax
  456243:	48 89 c7             	mov    %rax,%rdi
  456246:	e8 89 ef ff ff       	callq  4551d4 <_ZSt7forwardISt17reference_wrapperIN2C22X4EEEOT_RNSt16remove_referenceIS4_E4typeE>
  45624b:	48 89 c6             	mov    %rax,%rsi
  45624e:	48 89 df             	mov    %rbx,%rdi
  456251:	e8 2e 04 00 00       	callq  456684 <_ZNSt11_Tuple_implILm1EJSt17reference_wrapperIN2C22X4EEEEC1IS3_EEOT_>
  456256:	48 8b 45 e8          	mov    -0x18(%rbp),%rax
  45625a:	48 8d 58 08          	lea    0x8(%rax),%rbx
  45625e:	48 8b 45 e0          	mov    -0x20(%rbp),%rax
  456262:	48 89 c7             	mov    %rax,%rdi
  456265:	e8 5c ef ff ff       	callq  4551c6 <_ZSt7forwardIMN2C22X4EFvvEEOT_RNSt16remove_referenceIS4_E4typeE>
  45626a:	48 89 c6             	mov    %rax,%rsi
  45626d:	48 89 df             	mov    %rbx,%rdi
  456270:	e8 43 04 00 00       	callq  4566b8 <_ZNSt10_Head_baseILm0EMN2C22X4EFvvELb0EEC1IS3_EEOT_>
  456275:	90                   	nop
  456276:	48 8b 5d f8          	mov    -0x8(%rbp),%rbx
  45627a:	c9                   	leaveq 
  45627b:	c3                   	retq   

000000000045627c <_ZSt3getILm0EJPN2C27big_objESt14default_deleteIS1_EEERKNSt13tuple_elementIXT_ESt5tupleIJDpT0_EEE4typeERKS9_>:
  45627c:	55                   	push   %rbp
  45627d:	48 89 e5             	mov    %rsp,%rbp
  456280:	48 83 ec 10          	sub    $0x10,%rsp
  456284:	48 89 7d f8          	mov    %rdi,-0x8(%rbp)
  456288:	48 8b 45 f8          	mov    -0x8(%rbp),%rax
  45628c:	48 89 c7             	mov    %rax,%rdi
  45628f:	e8 55 04 00 00       	callq  4566e9 <_ZSt12__get_helperILm0EPN2C27big_objEJSt14default_deleteIS1_EEERKT0_RKSt11_Tuple_implIXT_EJS5_DpT1_EE>
  456294:	c9                   	leaveq 
  456295:	c3                   	retq   

0000000000456296 <_ZNSt11_Tuple_implILm0EJPN2C27big_objESt14default_deleteIS1_EEEC1Ev>:
  456296:	55                   	push   %rbp
  456297:	48 89 e5             	mov    %rsp,%rbp
  45629a:	48 83 ec 10          	sub    $0x10,%rsp
  45629e:	48 89 7d f8          	mov    %rdi,-0x8(%rbp)
  4562a2:	48 8b 45 f8          	mov    -0x8(%rbp),%rax
  4562a6:	48 89 c7             	mov    %rax,%rdi
  4562a9:	e8 56 04 00 00       	callq  456704 <_ZNSt11_Tuple_implILm1EJSt14default_deleteIN2C27big_objEEEEC1Ev>
  4562ae:	48 8b 45 f8          	mov    -0x8(%rbp),%rax
  4562b2:	48 89 c7             	mov    %rax,%rdi
  4562b5:	e8 66 04 00 00       	callq  456720 <_ZNSt10_Head_baseILm0EPN2C27big_objELb0EEC1Ev>
  4562ba:	90                   	nop
  4562bb:	c9                   	leaveq 
  4562bc:	c3                   	retq   

00000000004562bd <_ZSt12__get_helperILm0EPN2C27big_objEJSt14default_deleteIS1_EEERT0_RSt11_Tuple_implIXT_EJS5_DpT1_EE>:
  4562bd:	55                   	push   %rbp
  4562be:	48 89 e5             	mov    %rsp,%rbp
  4562c1:	48 83 ec 10          	sub    $0x10,%rsp
  4562c5:	48 89 7d f8          	mov    %rdi,-0x8(%rbp)
  4562c9:	48 8b 45 f8          	mov    -0x8(%rbp),%rax
  4562cd:	48 89 c7             	mov    %rax,%rdi
  4562d0:	e8 61 04 00 00       	callq  456736 <_ZNSt11_Tuple_implILm0EJPN2C27big_objESt14default_deleteIS1_EEE7_M_headERS5_>
  4562d5:	c9                   	leaveq 
  4562d6:	c3                   	retq   

00000000004562d7 <_ZSt3getILm1EJPN2C27big_objESt14default_deleteIS1_EEERNSt13tuple_elementIXT_ESt5tupleIJDpT0_EEE4typeERS9_>:
  4562d7:	55                   	push   %rbp
  4562d8:	48 89 e5             	mov    %rsp,%rbp
  4562db:	48 83 ec 10          	sub    $0x10,%rsp
  4562df:	48 89 7d f8          	mov    %rdi,-0x8(%rbp)
  4562e3:	48 8b 45 f8          	mov    -0x8(%rbp),%rax
  4562e7:	48 89 c7             	mov    %rax,%rdi
  4562ea:	e8 61 04 00 00       	callq  456750 <_ZSt12__get_helperILm1ESt14default_deleteIN2C27big_objEEJEERT0_RSt11_Tuple_implIXT_EJS4_DpT1_EE>
  4562ef:	c9                   	leaveq 
  4562f0:	c3                   	retq   
  4562f1:	90                   	nop

00000000004562f2 <_ZNSt11_Tuple_implILm0EJPFvSt10unique_ptrIN2C27big_objESt14default_deleteIS2_EEES5_EEC1IRS6_JS5_EvEEOT_DpOT0_>:
  4562f2:	55                   	push   %rbp
  4562f3:	48 89 e5             	mov    %rsp,%rbp
  4562f6:	53                   	push   %rbx
  4562f7:	48 83 ec 38          	sub    $0x38,%rsp
  4562fb:	48 89 7d d8          	mov    %rdi,-0x28(%rbp)
  4562ff:	48 89 75 d0          	mov    %rsi,-0x30(%rbp)
  456303:	48 89 55 c8          	mov    %rdx,-0x38(%rbp)
  456307:	48 8b 5d d8          	mov    -0x28(%rbp),%rbx
  45630b:	48 8b 45 c8          	mov    -0x38(%rbp),%rax
  45630f:	48 89 c7             	mov    %rax,%rdi
  456312:	e8 22 f0 ff ff       	callq  455339 <_ZSt7forwardISt10unique_ptrIN2C27big_objESt14default_deleteIS2_EEEOT_RNSt16remove_referenceIS6_E4typeE>
  456317:	48 89 c6             	mov    %rax,%rsi
  45631a:	48 89 df             	mov    %rbx,%rdi
  45631d:	e8 48 04 00 00       	callq  45676a <_ZNSt11_Tuple_implILm1EJSt10unique_ptrIN2C27big_objESt14default_deleteIS2_EEEEC1IS5_EEOT_>
  456322:	48 8b 45 d8          	mov    -0x28(%rbp),%rax
  456326:	48 8d 58 08          	lea    0x8(%rax),%rbx
  45632a:	48 8b 45 d0          	mov    -0x30(%rbp),%rax
  45632e:	48 89 c7             	mov    %rax,%rdi
  456331:	e8 f5 ef ff ff       	callq  45532b <_ZSt7forwardIRFvSt10unique_ptrIN2C27big_objESt14default_deleteIS2_EEEEOT_RNSt16remove_referenceIS8_E4typeE>
  456336:	48 89 45 e8          	mov    %rax,-0x18(%rbp)
  45633a:	48 8d 45 e8          	lea    -0x18(%rbp),%rax
  45633e:	48 89 c6             	mov    %rax,%rsi
  456341:	48 89 df             	mov    %rbx,%rdi
  456344:	e8 55 04 00 00       	callq  45679e <_ZNSt10_Head_baseILm0EPFvSt10unique_ptrIN2C27big_objESt14default_deleteIS2_EEELb0EEC1ERKS7_>
  456349:	90                   	nop
  45634a:	48 8b 5d f8          	mov    -0x8(%rbp),%rbx
  45634e:	c9                   	leaveq 
  45634f:	c3                   	retq   

0000000000456350 <_ZNSt11_Tuple_implILm0EJN2C215background_taskEEEC1IS1_EEOT_>:
  456350:	55                   	push   %rbp
  456351:	48 89 e5             	mov    %rsp,%rbp
  456354:	53                   	push   %rbx
  456355:	48 83 ec 18          	sub    $0x18,%rsp
  456359:	48 89 7d e8          	mov    %rdi,-0x18(%rbp)
  45635d:	48 89 75 e0          	mov    %rsi,-0x20(%rbp)
  456361:	48 8b 5d e8          	mov    -0x18(%rbp),%rbx
  456365:	48 8b 45 e0          	mov    -0x20(%rbp),%rax
  456369:	48 89 c7             	mov    %rax,%rdi
  45636c:	e8 62 f0 ff ff       	callq  4553d3 <_ZSt7forwardIN2C215background_taskEEOT_RNSt16remove_referenceIS2_E4typeE>
  456371:	48 89 c6             	mov    %rax,%rsi
  456374:	48 89 df             	mov    %rbx,%rdi
  456377:	e8 40 04 00 00       	callq  4567bc <_ZNSt10_Head_baseILm0EN2C215background_taskELb0EEC1IS1_EEOT_>
  45637c:	90                   	nop
  45637d:	48 8b 5d f8          	mov    -0x8(%rbp),%rbx
  456381:	c9                   	leaveq 
  456382:	c3                   	retq   
  456383:	90                   	nop

0000000000456384 <_ZN9__gnu_cxx13new_allocatorISt6threadE10deallocateEPS1_m>:
  456384:	55                   	push   %rbp
  456385:	48 89 e5             	mov    %rsp,%rbp
  456388:	48 83 ec 20          	sub    $0x20,%rsp
  45638c:	48 89 7d f8          	mov    %rdi,-0x8(%rbp)
  456390:	48 89 75 f0          	mov    %rsi,-0x10(%rbp)
  456394:	48 89 55 e8          	mov    %rdx,-0x18(%rbp)
  456398:	48 8b 45 e8          	mov    -0x18(%rbp),%rax
  45639c:	48 8d 14 c5 00 00 00 	lea    0x0(,%rax,8),%rdx
  4563a3:	00 
  4563a4:	48 8b 45 f0          	mov    -0x10(%rbp),%rax
  4563a8:	48 89 d6             	mov    %rdx,%rsi
  4563ab:	48 89 c7             	mov    %rax,%rdi
  4563ae:	e8 bd cf ff ff       	callq  453370 <_ZdlPvm@plt>
  4563b3:	c9                   	leaveq 
  4563b4:	c3                   	retq   

00000000004563b5 <_ZNSt12_Destroy_auxILb0EE9__destroyIPSt6threadEEvT_S4_>:
  4563b5:	55                   	push   %rbp
  4563b6:	48 89 e5             	mov    %rsp,%rbp
  4563b9:	48 83 ec 10          	sub    $0x10,%rsp
  4563bd:	48 89 7d f8          	mov    %rdi,-0x8(%rbp)
  4563c1:	48 89 75 f0          	mov    %rsi,-0x10(%rbp)
  4563c5:	48 8b 45 f8          	mov    -0x8(%rbp),%rax
  4563c9:	48 3b 45 f0          	cmp    -0x10(%rbp),%rax
  4563cd:	74 1b                	je     4563ea <_ZNSt12_Destroy_auxILb0EE9__destroyIPSt6threadEEvT_S4_+0x35>
  4563cf:	48 8b 45 f8          	mov    -0x8(%rbp),%rax
  4563d3:	48 89 c7             	mov    %rax,%rdi
  4563d6:	e8 0a 04 00 00       	callq  4567e5 <_ZSt11__addressofISt6threadEPT_RS1_>
  4563db:	48 89 c7             	mov    %rax,%rdi
  4563de:	e8 10 04 00 00       	callq  4567f3 <_ZSt8_DestroyISt6threadEvPT_>
  4563e3:	48 83 45 f8 08       	addq   $0x8,-0x8(%rbp)
  4563e8:	eb db                	jmp    4563c5 <_ZNSt12_Destroy_auxILb0EE9__destroyIPSt6threadEEvT_S4_+0x10>
  4563ea:	90                   	nop
  4563eb:	c9                   	leaveq 
  4563ec:	c3                   	retq   
  4563ed:	90                   	nop

00000000004563ee <_ZNSt6threadC1IRFvjEJRjEvEEOT_DpOT0_>:
  4563ee:	55                   	push   %rbp
  4563ef:	48 89 e5             	mov    %rsp,%rbp
  4563f2:	53                   	push   %rbx
  4563f3:	48 83 ec 38          	sub    $0x38,%rsp
  4563f7:	48 89 7d d8          	mov    %rdi,-0x28(%rbp)
  4563fb:	48 89 75 d0          	mov    %rsi,-0x30(%rbp)
  4563ff:	48 89 55 c8          	mov    %rdx,-0x38(%rbp)
  456403:	48 8b 45 d8          	mov    -0x28(%rbp),%rax
  456407:	48 89 c7             	mov    %rax,%rdi
  45640a:	e8 19 de ff ff       	callq  454228 <_ZNSt6thread2idC1Ev>
  45640f:	48 c7 45 e8 f0 31 45 	movq   $0x4531f0,-0x18(%rbp)
  456416:	00 
  456417:	48 8b 45 c8          	mov    -0x38(%rbp),%rax
  45641b:	48 89 c7             	mov    %rax,%rdi
  45641e:	e8 01 f1 ff ff       	callq  455524 <_ZSt7forwardIRjEOT_RNSt16remove_referenceIS1_E4typeE>
  456423:	48 89 c3             	mov    %rax,%rbx
  456426:	48 8b 45 d0          	mov    -0x30(%rbp),%rax
  45642a:	48 89 c7             	mov    %rax,%rdi
  45642d:	e8 e4 f0 ff ff       	callq  455516 <_ZSt7forwardIRFvjEEOT_RNSt16remove_referenceIS2_E4typeE>
  456432:	48 89 c1             	mov    %rax,%rcx
  456435:	48 8d 45 e0          	lea    -0x20(%rbp),%rax
  456439:	48 89 da             	mov    %rbx,%rdx
  45643c:	48 89 ce             	mov    %rcx,%rsi
  45643f:	48 89 c7             	mov    %rax,%rdi
  456442:	e8 c7 03 00 00       	callq  45680e <_ZNSt6thread13_S_make_stateINS_8_InvokerISt5tupleIJPFvjEjEEEEJRS3_RjEEESt10unique_ptrINS_6_StateESt14default_deleteISA_EEDpOT0_>
  456447:	48 8b 55 e8          	mov    -0x18(%rbp),%rdx
  45644b:	48 8d 4d e0          	lea    -0x20(%rbp),%rcx
  45644f:	48 8b 45 d8          	mov    -0x28(%rbp),%rax
  456453:	48 89 ce             	mov    %rcx,%rsi
  456456:	48 89 c7             	mov    %rax,%rdi
  456459:	e8 b2 ce ff ff       	callq  453310 <_ZNSt6thread15_M_start_threadESt10unique_ptrINS_6_StateESt14default_deleteIS1_EEPFvvE@plt>
  45645e:	48 8d 45 e0          	lea    -0x20(%rbp),%rax
  456462:	48 89 c7             	mov    %rax,%rdi
  456465:	e8 4c eb ff ff       	callq  454fb6 <_ZNSt10unique_ptrINSt6thread6_StateESt14default_deleteIS1_EED1Ev>
  45646a:	eb 1a                	jmp    456486 <_ZNSt6threadC1IRFvjEJRjEvEEOT_DpOT0_+0x98>
  45646c:	48 89 c3             	mov    %rax,%rbx
  45646f:	48 8d 45 e0          	lea    -0x20(%rbp),%rax
  456473:	48 89 c7             	mov    %rax,%rdi
  456476:	e8 3b eb ff ff       	callq  454fb6 <_ZNSt10unique_ptrINSt6thread6_StateESt14default_deleteIS1_EED1Ev>
  45647b:	48 89 d8             	mov    %rbx,%rax
  45647e:	48 89 c7             	mov    %rax,%rdi
  456481:	e8 1a d1 ff ff       	callq  4535a0 <_Unwind_Resume@plt>
  456486:	48 8b 5d f8          	mov    -0x8(%rbp),%rbx
  45648a:	c9                   	leaveq 
  45648b:	c3                   	retq   

000000000045648c <_ZNKSt6vectorISt6threadSaIS0_EE8max_sizeEv>:
  45648c:	55                   	push   %rbp
  45648d:	48 89 e5             	mov    %rsp,%rbp
  456490:	48 83 ec 10          	sub    $0x10,%rsp
  456494:	48 89 7d f8          	mov    %rdi,-0x8(%rbp)
  456498:	48 8b 45 f8          	mov    -0x8(%rbp),%rax
  45649c:	48 89 c7             	mov    %rax,%rdi
  45649f:	e8 38 04 00 00       	callq  4568dc <_ZNKSt12_Vector_baseISt6threadSaIS0_EE19_M_get_Tp_allocatorEv>
  4564a4:	48 89 c7             	mov    %rax,%rdi
  4564a7:	e8 ee 03 00 00       	callq  45689a <_ZNSt6vectorISt6threadSaIS0_EE11_S_max_sizeERKS1_>
  4564ac:	c9                   	leaveq 
  4564ad:	c3                   	retq   

00000000004564ae <_ZNKSt6vectorISt6threadSaIS0_EE4sizeEv>:
  4564ae:	55                   	push   %rbp
  4564af:	48 89 e5             	mov    %rsp,%rbp
  4564b2:	48 89 7d f8          	mov    %rdi,-0x8(%rbp)
  4564b6:	48 8b 45 f8          	mov    -0x8(%rbp),%rax
  4564ba:	48 8b 50 08          	mov    0x8(%rax),%rdx
  4564be:	48 8b 45 f8          	mov    -0x8(%rbp),%rax
  4564c2:	48 8b 08             	mov    (%rax),%rcx
  4564c5:	48 89 d0             	mov    %rdx,%rax
  4564c8:	48 29 c8             	sub    %rcx,%rax
  4564cb:	48 c1 f8 03          	sar    $0x3,%rax
  4564cf:	5d                   	pop    %rbp
  4564d0:	c3                   	retq   

00000000004564d1 <_ZSt3maxImERKT_S2_S2_>:
  4564d1:	55                   	push   %rbp
  4564d2:	48 89 e5             	mov    %rsp,%rbp
  4564d5:	48 89 7d f8          	mov    %rdi,-0x8(%rbp)
